	.file	"test2.cpp"
	.text
	.section	.text._ZNKSt9type_infoeqERKS_,"axG",@progbits,_ZNKSt9type_infoeqERKS_,comdat
	.align 2
	.weak	_ZNKSt9type_infoeqERKS_
	.type	_ZNKSt9type_infoeqERKS_, @function
_ZNKSt9type_infoeqERKS_:
.LFB20:
	.cfi_startproc
	endbr64
	pushq	%rbp
	.cfi_def_cfa_offset 16
	.cfi_offset 6, -16
	movq	%rsp, %rbp
	.cfi_def_cfa_register 6
	subq	$16, %rsp
	movq	%rdi, -8(%rbp)
	movq	%rsi, -16(%rbp)
	movq	-8(%rbp), %rax
	movq	8(%rax), %rdx
	movq	-16(%rbp), %rax
	movq	8(%rax), %rax
	cmpq	%rax, %rdx
	je	.L2
	movq	-8(%rbp), %rax
	movq	8(%rax), %rax
	movzbl	(%rax), %eax
	cmpb	$42, %al
	je	.L3
	movq	-16(%rbp), %rax
	movq	8(%rax), %rdx
	movq	-8(%rbp), %rax
	movq	8(%rax), %rax
	movq	%rdx, %rsi
	movq	%rax, %rdi
	call	strcmp@PLT
	testl	%eax, %eax
	jne	.L3
.L2:
	movl	$1, %eax
	jmp	.L4
.L3:
	movl	$0, %eax
.L4:
	leave
	.cfi_def_cfa 7, 8
	ret
	.cfi_endproc
.LFE20:
	.size	_ZNKSt9type_infoeqERKS_, .-_ZNKSt9type_infoeqERKS_
	.section	.text._ZnwmPv,"axG",@progbits,_ZnwmPv,comdat
	.weak	_ZnwmPv
	.type	_ZnwmPv, @function
_ZnwmPv:
.LFB38:
	.cfi_startproc
	endbr64
	pushq	%rbp
	.cfi_def_cfa_offset 16
	.cfi_offset 6, -16
	movq	%rsp, %rbp
	.cfi_def_cfa_register 6
	movq	%rdi, -8(%rbp)
	movq	%rsi, -16(%rbp)
	movq	-16(%rbp), %rax
	popq	%rbp
	.cfi_def_cfa 7, 8
	ret
	.cfi_endproc
.LFE38:
	.size	_ZnwmPv, .-_ZnwmPv
	.section	.text._ZdlPvS_,"axG",@progbits,_ZdlPvS_,comdat
	.weak	_ZdlPvS_
	.type	_ZdlPvS_, @function
_ZdlPvS_:
.LFB40:
	.cfi_startproc
	endbr64
	pushq	%rbp
	.cfi_def_cfa_offset 16
	.cfi_offset 6, -16
	movq	%rsp, %rbp
	.cfi_def_cfa_register 6
	movq	%rdi, -8(%rbp)
	movq	%rsi, -16(%rbp)
	nop
	popq	%rbp
	.cfi_def_cfa 7, 8
	ret
	.cfi_endproc
.LFE40:
	.size	_ZdlPvS_, .-_ZdlPvS_
	.weak	_ZSt19piecewise_construct
	.section	.rodata._ZSt19piecewise_construct,"aG",@progbits,_ZSt19piecewise_construct,comdat
	.type	_ZSt19piecewise_construct, @gnu_unique_object
	.size	_ZSt19piecewise_construct, 1
_ZSt19piecewise_construct:
	.zero	1
	.section	.text._ZN9__gnu_cxx5__ops16__iter_less_iterEv,"axG",@progbits,_ZN9__gnu_cxx5__ops16__iter_less_iterEv,comdat
	.weak	_ZN9__gnu_cxx5__ops16__iter_less_iterEv
	.type	_ZN9__gnu_cxx5__ops16__iter_less_iterEv, @function
_ZN9__gnu_cxx5__ops16__iter_less_iterEv:
.LFB280:
	.cfi_startproc
	endbr64
	pushq	%rbp
	.cfi_def_cfa_offset 16
	.cfi_offset 6, -16
	movq	%rsp, %rbp
	.cfi_def_cfa_register 6
	nop
	popq	%rbp
	.cfi_def_cfa 7, 8
	ret
	.cfi_endproc
.LFE280:
	.size	_ZN9__gnu_cxx5__ops16__iter_less_iterEv, .-_ZN9__gnu_cxx5__ops16__iter_less_iterEv
	.section	.text._ZN9__gnu_cxx5__ops14_Iter_less_valC2ENS0_15_Iter_less_iterE,"axG",@progbits,_ZN9__gnu_cxx5__ops14_Iter_less_valC5ENS0_15_Iter_less_iterE,comdat
	.align 2
	.weak	_ZN9__gnu_cxx5__ops14_Iter_less_valC2ENS0_15_Iter_less_iterE
	.type	_ZN9__gnu_cxx5__ops14_Iter_less_valC2ENS0_15_Iter_less_iterE, @function
_ZN9__gnu_cxx5__ops14_Iter_less_valC2ENS0_15_Iter_less_iterE:
.LFB282:
	.cfi_startproc
	endbr64
	pushq	%rbp
	.cfi_def_cfa_offset 16
	.cfi_offset 6, -16
	movq	%rsp, %rbp
	.cfi_def_cfa_register 6
	movq	%rdi, -8(%rbp)
	nop
	popq	%rbp
	.cfi_def_cfa 7, 8
	ret
	.cfi_endproc
.LFE282:
	.size	_ZN9__gnu_cxx5__ops14_Iter_less_valC2ENS0_15_Iter_less_iterE, .-_ZN9__gnu_cxx5__ops14_Iter_less_valC2ENS0_15_Iter_less_iterE
	.weak	_ZN9__gnu_cxx5__ops14_Iter_less_valC1ENS0_15_Iter_less_iterE
	.set	_ZN9__gnu_cxx5__ops14_Iter_less_valC1ENS0_15_Iter_less_iterE,_ZN9__gnu_cxx5__ops14_Iter_less_valC2ENS0_15_Iter_less_iterE
	.section	.text._ZN9__gnu_cxx5__ops15__iter_less_valEv,"axG",@progbits,_ZN9__gnu_cxx5__ops15__iter_less_valEv,comdat
	.weak	_ZN9__gnu_cxx5__ops15__iter_less_valEv
	.type	_ZN9__gnu_cxx5__ops15__iter_less_valEv, @function
_ZN9__gnu_cxx5__ops15__iter_less_valEv:
.LFB285:
	.cfi_startproc
	endbr64
	pushq	%rbp
	.cfi_def_cfa_offset 16
	.cfi_offset 6, -16
	movq	%rsp, %rbp
	.cfi_def_cfa_register 6
	nop
	popq	%rbp
	.cfi_def_cfa 7, 8
	ret
	.cfi_endproc
.LFE285:
	.size	_ZN9__gnu_cxx5__ops15__iter_less_valEv, .-_ZN9__gnu_cxx5__ops15__iter_less_valEv
	.section	.text._ZN9__gnu_cxx5__ops15__val_comp_iterENS0_15_Iter_less_iterE,"axG",@progbits,_ZN9__gnu_cxx5__ops15__val_comp_iterENS0_15_Iter_less_iterE,comdat
	.weak	_ZN9__gnu_cxx5__ops15__val_comp_iterENS0_15_Iter_less_iterE
	.type	_ZN9__gnu_cxx5__ops15__val_comp_iterENS0_15_Iter_less_iterE, @function
_ZN9__gnu_cxx5__ops15__val_comp_iterENS0_15_Iter_less_iterE:
.LFB292:
	.cfi_startproc
	endbr64
	pushq	%rbp
	.cfi_def_cfa_offset 16
	.cfi_offset 6, -16
	movq	%rsp, %rbp
	.cfi_def_cfa_register 6
	nop
	popq	%rbp
	.cfi_def_cfa 7, 8
	ret
	.cfi_endproc
.LFE292:
	.size	_ZN9__gnu_cxx5__ops15__val_comp_iterENS0_15_Iter_less_iterE, .-_ZN9__gnu_cxx5__ops15__val_comp_iterENS0_15_Iter_less_iterE
	.section	.text._ZN9__gnu_cxx5__ops20__iter_equal_to_iterEv,"axG",@progbits,_ZN9__gnu_cxx5__ops20__iter_equal_to_iterEv,comdat
	.weak	_ZN9__gnu_cxx5__ops20__iter_equal_to_iterEv
	.type	_ZN9__gnu_cxx5__ops20__iter_equal_to_iterEv, @function
_ZN9__gnu_cxx5__ops20__iter_equal_to_iterEv:
.LFB294:
	.cfi_startproc
	endbr64
	pushq	%rbp
	.cfi_def_cfa_offset 16
	.cfi_offset 6, -16
	movq	%rsp, %rbp
	.cfi_def_cfa_register 6
	nop
	popq	%rbp
	.cfi_def_cfa 7, 8
	ret
	.cfi_endproc
.LFE294:
	.size	_ZN9__gnu_cxx5__ops20__iter_equal_to_iterEv, .-_ZN9__gnu_cxx5__ops20__iter_equal_to_iterEv
	.section	.text._ZSt17__size_to_integerm,"axG",@progbits,_ZSt17__size_to_integerm,comdat
	.weak	_ZSt17__size_to_integerm
	.type	_ZSt17__size_to_integerm, @function
_ZSt17__size_to_integerm:
.LFB371:
	.cfi_startproc
	endbr64
	pushq	%rbp
	.cfi_def_cfa_offset 16
	.cfi_offset 6, -16
	movq	%rsp, %rbp
	.cfi_def_cfa_register 6
	movq	%rdi, -8(%rbp)
	movq	-8(%rbp), %rax
	popq	%rbp
	.cfi_def_cfa 7, 8
	ret
	.cfi_endproc
.LFE371:
	.size	_ZSt17__size_to_integerm, .-_ZSt17__size_to_integerm
	.section	.text._ZSt4__lgl,"axG",@progbits,_ZSt4__lgl,comdat
	.weak	_ZSt4__lgl
	.type	_ZSt4__lgl, @function
_ZSt4__lgl:
.LFB405:
	.cfi_startproc
	endbr64
	pushq	%rbp
	.cfi_def_cfa_offset 16
	.cfi_offset 6, -16
	movq	%rsp, %rbp
	.cfi_def_cfa_register 6
	movq	%rdi, -8(%rbp)
	movq	-8(%rbp), %rax
	bsrq	%rax, %rax
	xorq	$63, %rax
	movl	%eax, %edx
	movl	$63, %eax
	subl	%edx, %eax
	cltq
	popq	%rbp
	.cfi_def_cfa 7, 8
	ret
	.cfi_endproc
.LFE405:
	.size	_ZSt4__lgl, .-_ZSt4__lgl
	.section	.text._ZNSt11char_traitsIcE2ltERKcS2_,"axG",@progbits,_ZNSt11char_traitsIcE2ltERKcS2_,comdat
	.weak	_ZNSt11char_traitsIcE2ltERKcS2_
	.type	_ZNSt11char_traitsIcE2ltERKcS2_, @function
_ZNSt11char_traitsIcE2ltERKcS2_:
.LFB447:
	.cfi_startproc
	endbr64
	pushq	%rbp
	.cfi_def_cfa_offset 16
	.cfi_offset 6, -16
	movq	%rsp, %rbp
	.cfi_def_cfa_register 6
	movq	%rdi, -8(%rbp)
	movq	%rsi, -16(%rbp)
	movq	-8(%rbp), %rax
	movzbl	(%rax), %eax
	movl	%eax, %edx
	movq	-16(%rbp), %rax
	movzbl	(%rax), %eax
	cmpb	%al, %dl
	setb	%al
	popq	%rbp
	.cfi_def_cfa 7, 8
	ret
	.cfi_endproc
.LFE447:
	.size	_ZNSt11char_traitsIcE2ltERKcS2_, .-_ZNSt11char_traitsIcE2ltERKcS2_
	.section	.text._ZNSt11char_traitsIcE7compareEPKcS2_m,"axG",@progbits,_ZNSt11char_traitsIcE7compareEPKcS2_m,comdat
	.weak	_ZNSt11char_traitsIcE7compareEPKcS2_m
	.type	_ZNSt11char_traitsIcE7compareEPKcS2_m, @function
_ZNSt11char_traitsIcE7compareEPKcS2_m:
.LFB448:
	.cfi_startproc
	endbr64
	pushq	%rbp
	.cfi_def_cfa_offset 16
	.cfi_offset 6, -16
	movq	%rsp, %rbp
	.cfi_def_cfa_register 6
	subq	$48, %rsp
	movq	%rdi, -24(%rbp)
	movq	%rsi, -32(%rbp)
	movq	%rdx, -40(%rbp)
	cmpq	$0, -40(%rbp)
	jne	.L25
	movl	$0, %eax
	jmp	.L26
.L25:
	movl	$0, %eax
	testb	%al, %al
	je	.L27
	movq	$0, -8(%rbp)
	jmp	.L28
.L31:
	movq	-32(%rbp), %rdx
	movq	-8(%rbp), %rax
	addq	%rax, %rdx
	movq	-24(%rbp), %rcx
	movq	-8(%rbp), %rax
	addq	%rcx, %rax
	movq	%rdx, %rsi
	movq	%rax, %rdi
	call	_ZNSt11char_traitsIcE2ltERKcS2_
	testb	%al, %al
	je	.L29
	movl	$-1, %eax
	jmp	.L26
.L29:
	movq	-24(%rbp), %rdx
	movq	-8(%rbp), %rax
	addq	%rax, %rdx
	movq	-32(%rbp), %rcx
	movq	-8(%rbp), %rax
	addq	%rcx, %rax
	movq	%rdx, %rsi
	movq	%rax, %rdi
	call	_ZNSt11char_traitsIcE2ltERKcS2_
	testb	%al, %al
	je	.L30
	movl	$1, %eax
	jmp	.L26
.L30:
	addq	$1, -8(%rbp)
.L28:
	movq	-8(%rbp), %rax
	cmpq	-40(%rbp), %rax
	jb	.L31
	movl	$0, %eax
	jmp	.L26
.L27:
	movq	-40(%rbp), %rdx
	movq	-32(%rbp), %rcx
	movq	-24(%rbp), %rax
	movq	%rcx, %rsi
	movq	%rax, %rdi
	call	memcmp@PLT
	nop
.L26:
	leave
	.cfi_def_cfa 7, 8
	ret
	.cfi_endproc
.LFE448:
	.size	_ZNSt11char_traitsIcE7compareEPKcS2_m, .-_ZNSt11char_traitsIcE7compareEPKcS2_m
	.section	.text._ZNSt11char_traitsIcE6lengthEPKc,"axG",@progbits,_ZNSt11char_traitsIcE6lengthEPKc,comdat
	.weak	_ZNSt11char_traitsIcE6lengthEPKc
	.type	_ZNSt11char_traitsIcE6lengthEPKc, @function
_ZNSt11char_traitsIcE6lengthEPKc:
.LFB450:
	.cfi_startproc
	endbr64
	pushq	%rbp
	.cfi_def_cfa_offset 16
	.cfi_offset 6, -16
	movq	%rsp, %rbp
	.cfi_def_cfa_register 6
	subq	$32, %rsp
	movq	%rdi, -24(%rbp)
	movq	-24(%rbp), %rax
	movq	%rax, -8(%rbp)
	movl	$0, %eax
	testb	%al, %al
	je	.L34
	movq	-24(%rbp), %rax
	movq	%rax, %rdi
	call	_ZN9__gnu_cxx11char_traitsIcE6lengthEPKc
	jmp	.L35
.L34:
	movq	-24(%rbp), %rax
	movq	%rax, %rdi
	call	strlen@PLT
	nop
.L35:
	leave
	.cfi_def_cfa 7, 8
	ret
	.cfi_endproc
.LFE450:
	.size	_ZNSt11char_traitsIcE6lengthEPKc, .-_ZNSt11char_traitsIcE6lengthEPKc
	.section	.text._ZNKSt17integral_constantIbLb1EEcvbEv,"axG",@progbits,_ZNKSt17integral_constantIbLb1EEcvbEv,comdat
	.align 2
	.weak	_ZNKSt17integral_constantIbLb1EEcvbEv
	.type	_ZNKSt17integral_constantIbLb1EEcvbEv, @function
_ZNKSt17integral_constantIbLb1EEcvbEv:
.LFB877:
	.cfi_startproc
	endbr64
	pushq	%rbp
	.cfi_def_cfa_offset 16
	.cfi_offset 6, -16
	movq	%rsp, %rbp
	.cfi_def_cfa_register 6
	movq	%rdi, -8(%rbp)
	movl	$1, %eax
	popq	%rbp
	.cfi_def_cfa 7, 8
	ret
	.cfi_endproc
.LFE877:
	.size	_ZNKSt17integral_constantIbLb1EEcvbEv, .-_ZNKSt17integral_constantIbLb1EEcvbEv
	.section	.text._ZStanSt13_Ios_FmtflagsS_,"axG",@progbits,_ZStanSt13_Ios_FmtflagsS_,comdat
	.weak	_ZStanSt13_Ios_FmtflagsS_
	.type	_ZStanSt13_Ios_FmtflagsS_, @function
_ZStanSt13_Ios_FmtflagsS_:
.LFB1318:
	.cfi_startproc
	endbr64
	pushq	%rbp
	.cfi_def_cfa_offset 16
	.cfi_offset 6, -16
	movq	%rsp, %rbp
	.cfi_def_cfa_register 6
	movl	%edi, -4(%rbp)
	movl	%esi, -8(%rbp)
	movl	-4(%rbp), %eax
	andl	-8(%rbp), %eax
	popq	%rbp
	.cfi_def_cfa 7, 8
	ret
	.cfi_endproc
.LFE1318:
	.size	_ZStanSt13_Ios_FmtflagsS_, .-_ZStanSt13_Ios_FmtflagsS_
	.section	.text._ZStorSt13_Ios_FmtflagsS_,"axG",@progbits,_ZStorSt13_Ios_FmtflagsS_,comdat
	.weak	_ZStorSt13_Ios_FmtflagsS_
	.type	_ZStorSt13_Ios_FmtflagsS_, @function
_ZStorSt13_Ios_FmtflagsS_:
.LFB1319:
	.cfi_startproc
	endbr64
	pushq	%rbp
	.cfi_def_cfa_offset 16
	.cfi_offset 6, -16
	movq	%rsp, %rbp
	.cfi_def_cfa_register 6
	movl	%edi, -4(%rbp)
	movl	%esi, -8(%rbp)
	movl	-4(%rbp), %eax
	orl	-8(%rbp), %eax
	popq	%rbp
	.cfi_def_cfa 7, 8
	ret
	.cfi_endproc
.LFE1319:
	.size	_ZStorSt13_Ios_FmtflagsS_, .-_ZStorSt13_Ios_FmtflagsS_
	.section	.text._ZStcoSt13_Ios_Fmtflags,"axG",@progbits,_ZStcoSt13_Ios_Fmtflags,comdat
	.weak	_ZStcoSt13_Ios_Fmtflags
	.type	_ZStcoSt13_Ios_Fmtflags, @function
_ZStcoSt13_Ios_Fmtflags:
.LFB1321:
	.cfi_startproc
	endbr64
	pushq	%rbp
	.cfi_def_cfa_offset 16
	.cfi_offset 6, -16
	movq	%rsp, %rbp
	.cfi_def_cfa_register 6
	movl	%edi, -4(%rbp)
	movl	-4(%rbp), %eax
	notl	%eax
	popq	%rbp
	.cfi_def_cfa 7, 8
	ret
	.cfi_endproc
.LFE1321:
	.size	_ZStcoSt13_Ios_Fmtflags, .-_ZStcoSt13_Ios_Fmtflags
	.section	.text._ZStoRRSt13_Ios_FmtflagsS_,"axG",@progbits,_ZStoRRSt13_Ios_FmtflagsS_,comdat
	.weak	_ZStoRRSt13_Ios_FmtflagsS_
	.type	_ZStoRRSt13_Ios_FmtflagsS_, @function
_ZStoRRSt13_Ios_FmtflagsS_:
.LFB1322:
	.cfi_startproc
	endbr64
	pushq	%rbp
	.cfi_def_cfa_offset 16
	.cfi_offset 6, -16
	movq	%rsp, %rbp
	.cfi_def_cfa_register 6
	subq	$16, %rsp
	movq	%rdi, -8(%rbp)
	movl	%esi, -12(%rbp)
	movq	-8(%rbp), %rax
	movl	(%rax), %eax
	movl	-12(%rbp), %edx
	movl	%edx, %esi
	movl	%eax, %edi
	call	_ZStorSt13_Ios_FmtflagsS_
	movq	-8(%rbp), %rdx
	movl	%eax, (%rdx)
	movq	-8(%rbp), %rax
	leave
	.cfi_def_cfa 7, 8
	ret
	.cfi_endproc
.LFE1322:
	.size	_ZStoRRSt13_Ios_FmtflagsS_, .-_ZStoRRSt13_Ios_FmtflagsS_
	.section	.text._ZStaNRSt13_Ios_FmtflagsS_,"axG",@progbits,_ZStaNRSt13_Ios_FmtflagsS_,comdat
	.weak	_ZStaNRSt13_Ios_FmtflagsS_
	.type	_ZStaNRSt13_Ios_FmtflagsS_, @function
_ZStaNRSt13_Ios_FmtflagsS_:
.LFB1323:
	.cfi_startproc
	endbr64
	pushq	%rbp
	.cfi_def_cfa_offset 16
	.cfi_offset 6, -16
	movq	%rsp, %rbp
	.cfi_def_cfa_register 6
	subq	$16, %rsp
	movq	%rdi, -8(%rbp)
	movl	%esi, -12(%rbp)
	movq	-8(%rbp), %rax
	movl	(%rax), %eax
	movl	-12(%rbp), %edx
	movl	%edx, %esi
	movl	%eax, %edi
	call	_ZStanSt13_Ios_FmtflagsS_
	movq	-8(%rbp), %rdx
	movl	%eax, (%rdx)
	movq	-8(%rbp), %rax
	leave
	.cfi_def_cfa 7, 8
	ret
	.cfi_endproc
.LFE1323:
	.size	_ZStaNRSt13_Ios_FmtflagsS_, .-_ZStaNRSt13_Ios_FmtflagsS_
	.section	.text._ZNSt8ios_base4setfESt13_Ios_FmtflagsS0_,"axG",@progbits,_ZNSt8ios_base4setfESt13_Ios_FmtflagsS0_,comdat
	.align 2
	.weak	_ZNSt8ios_base4setfESt13_Ios_FmtflagsS0_
	.type	_ZNSt8ios_base4setfESt13_Ios_FmtflagsS0_, @function
_ZNSt8ios_base4setfESt13_Ios_FmtflagsS0_:
.LFB1352:
	.cfi_startproc
	endbr64
	pushq	%rbp
	.cfi_def_cfa_offset 16
	.cfi_offset 6, -16
	movq	%rsp, %rbp
	.cfi_def_cfa_register 6
	subq	$32, %rsp
	movq	%rdi, -24(%rbp)
	movl	%esi, -28(%rbp)
	movl	%edx, -32(%rbp)
	movq	-24(%rbp), %rax
	movl	24(%rax), %eax
	movl	%eax, -4(%rbp)
	movl	-32(%rbp), %eax
	movl	%eax, %edi
	call	_ZStcoSt13_Ios_Fmtflags
	movl	%eax, %edx
	movq	-24(%rbp), %rax
	addq	$24, %rax
	movl	%edx, %esi
	movq	%rax, %rdi
	call	_ZStaNRSt13_Ios_FmtflagsS_
	movl	-32(%rbp), %edx
	movl	-28(%rbp), %eax
	movl	%edx, %esi
	movl	%eax, %edi
	call	_ZStanSt13_Ios_FmtflagsS_
	movl	%eax, %edx
	movq	-24(%rbp), %rax
	addq	$24, %rax
	movl	%edx, %esi
	movq	%rax, %rdi
	call	_ZStoRRSt13_Ios_FmtflagsS_
	movl	-4(%rbp), %eax
	leave
	.cfi_def_cfa 7, 8
	ret
	.cfi_endproc
.LFE1352:
	.size	_ZNSt8ios_base4setfESt13_Ios_FmtflagsS0_, .-_ZNSt8ios_base4setfESt13_Ios_FmtflagsS0_
	.section	.text._ZSt3hexRSt8ios_base,"axG",@progbits,_ZSt3hexRSt8ios_base,comdat
	.weak	_ZSt3hexRSt8ios_base
	.type	_ZSt3hexRSt8ios_base, @function
_ZSt3hexRSt8ios_base:
.LFB1380:
	.cfi_startproc
	endbr64
	pushq	%rbp
	.cfi_def_cfa_offset 16
	.cfi_offset 6, -16
	movq	%rsp, %rbp
	.cfi_def_cfa_register 6
	subq	$16, %rsp
	movq	%rdi, -8(%rbp)
	movq	-8(%rbp), %rax
	movl	$74, %edx
	movl	$8, %esi
	movq	%rax, %rdi
	call	_ZNSt8ios_base4setfESt13_Ios_FmtflagsS0_
	movq	-8(%rbp), %rax
	leave
	.cfi_def_cfa 7, 8
	ret
	.cfi_endproc
.LFE1380:
	.size	_ZSt3hexRSt8ios_base, .-_ZSt3hexRSt8ios_base
	.section	.text._ZSt3octRSt8ios_base,"axG",@progbits,_ZSt3octRSt8ios_base,comdat
	.weak	_ZSt3octRSt8ios_base
	.type	_ZSt3octRSt8ios_base, @function
_ZSt3octRSt8ios_base:
.LFB1381:
	.cfi_startproc
	endbr64
	pushq	%rbp
	.cfi_def_cfa_offset 16
	.cfi_offset 6, -16
	movq	%rsp, %rbp
	.cfi_def_cfa_register 6
	subq	$16, %rsp
	movq	%rdi, -8(%rbp)
	movq	-8(%rbp), %rax
	movl	$74, %edx
	movl	$64, %esi
	movq	%rax, %rdi
	call	_ZNSt8ios_base4setfESt13_Ios_FmtflagsS0_
	movq	-8(%rbp), %rax
	leave
	.cfi_def_cfa 7, 8
	ret
	.cfi_endproc
.LFE1381:
	.size	_ZSt3octRSt8ios_base, .-_ZSt3octRSt8ios_base
	.section	.text._ZNKSt5ctypeIcE7toupperEc,"axG",@progbits,_ZNKSt5ctypeIcE7toupperEc,comdat
	.align 2
	.weak	_ZNKSt5ctypeIcE7toupperEc
	.type	_ZNKSt5ctypeIcE7toupperEc, @function
_ZNKSt5ctypeIcE7toupperEc:
.LFB1475:
	.cfi_startproc
	endbr64
	pushq	%rbp
	.cfi_def_cfa_offset 16
	.cfi_offset 6, -16
	movq	%rsp, %rbp
	.cfi_def_cfa_register 6
	subq	$16, %rsp
	movq	%rdi, -8(%rbp)
	movl	%esi, %eax
	movb	%al, -12(%rbp)
	movq	-8(%rbp), %rax
	movq	(%rax), %rax
	addq	$16, %rax
	movq	(%rax), %rcx
	movsbl	-12(%rbp), %edx
	movq	-8(%rbp), %rax
	movl	%edx, %esi
	movq	%rax, %rdi
	call	*%rcx
	leave
	.cfi_def_cfa 7, 8
	ret
	.cfi_endproc
.LFE1475:
	.size	_ZNKSt5ctypeIcE7toupperEc, .-_ZNKSt5ctypeIcE7toupperEc
	.section	.text._ZNKSt5ctypeIcE7tolowerEc,"axG",@progbits,_ZNKSt5ctypeIcE7tolowerEc,comdat
	.align 2
	.weak	_ZNKSt5ctypeIcE7tolowerEc
	.type	_ZNKSt5ctypeIcE7tolowerEc, @function
_ZNKSt5ctypeIcE7tolowerEc:
.LFB1477:
	.cfi_startproc
	endbr64
	pushq	%rbp
	.cfi_def_cfa_offset 16
	.cfi_offset 6, -16
	movq	%rsp, %rbp
	.cfi_def_cfa_register 6
	subq	$16, %rsp
	movq	%rdi, -8(%rbp)
	movl	%esi, %eax
	movb	%al, -12(%rbp)
	movq	-8(%rbp), %rax
	movq	(%rax), %rax
	addq	$32, %rax
	movq	(%rax), %rcx
	movsbl	-12(%rbp), %edx
	movq	-8(%rbp), %rax
	movl	%edx, %esi
	movq	%rax, %rdi
	call	*%rcx
	leave
	.cfi_def_cfa 7, 8
	ret
	.cfi_endproc
.LFE1477:
	.size	_ZNKSt5ctypeIcE7tolowerEc, .-_ZNKSt5ctypeIcE7tolowerEc
	.section	.text._ZNKSt5ctypeIcE7tolowerEPcPKc,"axG",@progbits,_ZNKSt5ctypeIcE7tolowerEPcPKc,comdat
	.align 2
	.weak	_ZNKSt5ctypeIcE7tolowerEPcPKc
	.type	_ZNKSt5ctypeIcE7tolowerEPcPKc, @function
_ZNKSt5ctypeIcE7tolowerEPcPKc:
.LFB1478:
	.cfi_startproc
	endbr64
	pushq	%rbp
	.cfi_def_cfa_offset 16
	.cfi_offset 6, -16
	movq	%rsp, %rbp
	.cfi_def_cfa_register 6
	subq	$32, %rsp
	movq	%rdi, -8(%rbp)
	movq	%rsi, -16(%rbp)
	movq	%rdx, -24(%rbp)
	movq	-8(%rbp), %rax
	movq	(%rax), %rax
	addq	$40, %rax
	movq	(%rax), %r8
	movq	-24(%rbp), %rdx
	movq	-16(%rbp), %rcx
	movq	-8(%rbp), %rax
	movq	%rcx, %rsi
	movq	%rax, %rdi
	call	*%r8
	leave
	.cfi_def_cfa 7, 8
	ret
	.cfi_endproc
.LFE1478:
	.size	_ZNKSt5ctypeIcE7tolowerEPcPKc, .-_ZNKSt5ctypeIcE7tolowerEPcPKc
	.section	.text._ZNKSt5ctypeIcE5widenEc,"axG",@progbits,_ZNKSt5ctypeIcE5widenEc,comdat
	.align 2
	.weak	_ZNKSt5ctypeIcE5widenEc
	.type	_ZNKSt5ctypeIcE5widenEc, @function
_ZNKSt5ctypeIcE5widenEc:
.LFB1479:
	.cfi_startproc
	endbr64
	pushq	%rbp
	.cfi_def_cfa_offset 16
	.cfi_offset 6, -16
	movq	%rsp, %rbp
	.cfi_def_cfa_register 6
	subq	$16, %rsp
	movq	%rdi, -8(%rbp)
	movl	%esi, %eax
	movb	%al, -12(%rbp)
	movq	-8(%rbp), %rax
	movzbl	56(%rax), %eax
	testb	%al, %al
	je	.L61
	movzbl	-12(%rbp), %eax
	movzbl	%al, %eax
	movq	-8(%rbp), %rdx
	cltq
	movzbl	57(%rdx,%rax), %eax
	jmp	.L62
.L61:
	movq	-8(%rbp), %rax
	movq	%rax, %rdi
	call	_ZNKSt5ctypeIcE13_M_widen_initEv@PLT
	movq	-8(%rbp), %rax
	movq	(%rax), %rax
	addq	$48, %rax
	movq	(%rax), %rcx
	movsbl	-12(%rbp), %edx
	movq	-8(%rbp), %rax
	movl	%edx, %esi
	movq	%rax, %rdi
	call	*%rcx
	nop
.L62:
	leave
	.cfi_def_cfa 7, 8
	ret
	.cfi_endproc
.LFE1479:
	.size	_ZNKSt5ctypeIcE5widenEc, .-_ZNKSt5ctypeIcE5widenEc
	.section	.text._ZNKSt5ctypeIcE6narrowEcc,"axG",@progbits,_ZNKSt5ctypeIcE6narrowEcc,comdat
	.align 2
	.weak	_ZNKSt5ctypeIcE6narrowEcc
	.type	_ZNKSt5ctypeIcE6narrowEcc, @function
_ZNKSt5ctypeIcE6narrowEcc:
.LFB1481:
	.cfi_startproc
	endbr64
	pushq	%rbp
	.cfi_def_cfa_offset 16
	.cfi_offset 6, -16
	movq	%rsp, %rbp
	.cfi_def_cfa_register 6
	subq	$32, %rsp
	movq	%rdi, -24(%rbp)
	movl	%esi, %ecx
	movl	%edx, %eax
	movl	%ecx, %edx
	movb	%dl, -28(%rbp)
	movb	%al, -32(%rbp)
	movzbl	-28(%rbp), %eax
	movzbl	%al, %eax
	movq	-24(%rbp), %rdx
	cltq
	movzbl	313(%rdx,%rax), %eax
	testb	%al, %al
	je	.L64
	movzbl	-28(%rbp), %eax
	movzbl	%al, %eax
	movq	-24(%rbp), %rdx
	cltq
	movzbl	313(%rdx,%rax), %eax
	jmp	.L65
.L64:
	movq	-24(%rbp), %rax
	movq	(%rax), %rax
	addq	$64, %rax
	movq	(%rax), %r8
	movsbl	-32(%rbp), %edx
	movsbl	-28(%rbp), %ecx
	movq	-24(%rbp), %rax
	movl	%ecx, %esi
	movq	%rax, %rdi
	call	*%r8
	movb	%al, -1(%rbp)
	movzbl	-1(%rbp), %eax
	cmpb	-32(%rbp), %al
	je	.L66
	movzbl	-28(%rbp), %eax
	movzbl	%al, %eax
	movq	-24(%rbp), %rdx
	cltq
	movzbl	-1(%rbp), %ecx
	movb	%cl, 313(%rdx,%rax)
.L66:
	movzbl	-1(%rbp), %eax
.L65:
	leave
	.cfi_def_cfa 7, 8
	ret
	.cfi_endproc
.LFE1481:
	.size	_ZNKSt5ctypeIcE6narrowEcc, .-_ZNKSt5ctypeIcE6narrowEcc
	.section	.text._ZNKSt5ctypeIcE2isEtc,"axG",@progbits,_ZNKSt5ctypeIcE2isEtc,comdat
	.align 2
	.weak	_ZNKSt5ctypeIcE2isEtc
	.type	_ZNKSt5ctypeIcE2isEtc, @function
_ZNKSt5ctypeIcE2isEtc:
.LFB1490:
	.cfi_startproc
	endbr64
	pushq	%rbp
	.cfi_def_cfa_offset 16
	.cfi_offset 6, -16
	movq	%rsp, %rbp
	.cfi_def_cfa_register 6
	movq	%rdi, -8(%rbp)
	movl	%esi, %eax
	movw	%ax, -12(%rbp)
	movl	%edx, %eax
	movb	%al, -16(%rbp)
	movq	-8(%rbp), %rax
	movq	48(%rax), %rdx
	movzbl	-16(%rbp), %eax
	movzbl	%al, %eax
	addq	%rax, %rax
	addq	%rdx, %rax
	movzwl	(%rax), %eax
	andw	-12(%rbp), %ax
	testw	%ax, %ax
	setne	%al
	popq	%rbp
	.cfi_def_cfa 7, 8
	ret
	.cfi_endproc
.LFE1490:
	.size	_ZNKSt5ctypeIcE2isEtc, .-_ZNKSt5ctypeIcE2isEtc
	.local	_ZStL8__ioinit
	.comm	_ZStL8__ioinit,1,1
	.section	.text._ZNSt9_Any_data9_M_accessEv,"axG",@progbits,_ZNSt9_Any_data9_M_accessEv,comdat
	.align 2
	.weak	_ZNSt9_Any_data9_M_accessEv
	.type	_ZNSt9_Any_data9_M_accessEv, @function
_ZNSt9_Any_data9_M_accessEv:
.LFB2595:
	.cfi_startproc
	endbr64
	pushq	%rbp
	.cfi_def_cfa_offset 16
	.cfi_offset 6, -16
	movq	%rsp, %rbp
	.cfi_def_cfa_register 6
	movq	%rdi, -8(%rbp)
	movq	-8(%rbp), %rax
	popq	%rbp
	.cfi_def_cfa 7, 8
	ret
	.cfi_endproc
.LFE2595:
	.size	_ZNSt9_Any_data9_M_accessEv, .-_ZNSt9_Any_data9_M_accessEv
	.section	.text._ZNKSt9_Any_data9_M_accessEv,"axG",@progbits,_ZNKSt9_Any_data9_M_accessEv,comdat
	.align 2
	.weak	_ZNKSt9_Any_data9_M_accessEv
	.type	_ZNKSt9_Any_data9_M_accessEv, @function
_ZNKSt9_Any_data9_M_accessEv:
.LFB2596:
	.cfi_startproc
	endbr64
	pushq	%rbp
	.cfi_def_cfa_offset 16
	.cfi_offset 6, -16
	movq	%rsp, %rbp
	.cfi_def_cfa_register 6
	movq	%rdi, -8(%rbp)
	movq	-8(%rbp), %rax
	popq	%rbp
	.cfi_def_cfa 7, 8
	ret
	.cfi_endproc
.LFE2596:
	.size	_ZNKSt9_Any_data9_M_accessEv, .-_ZNKSt9_Any_data9_M_accessEv
	.section	.text._ZNSt14_Function_baseD2Ev,"axG",@progbits,_ZNSt14_Function_baseD5Ev,comdat
	.align 2
	.weak	_ZNSt14_Function_baseD2Ev
	.type	_ZNSt14_Function_baseD2Ev, @function
_ZNSt14_Function_baseD2Ev:
.LFB2611:
	.cfi_startproc
	.cfi_personality 0x9b,DW.ref.__gxx_personality_v0
	.cfi_lsda 0x1b,.LLSDA2611
	endbr64
	pushq	%rbp
	.cfi_def_cfa_offset 16
	.cfi_offset 6, -16
	movq	%rsp, %rbp
	.cfi_def_cfa_register 6
	subq	$16, %rsp
	movq	%rdi, -8(%rbp)
	movq	-8(%rbp), %rax
	movq	16(%rax), %rax
	testq	%rax, %rax
	je	.L75
	movq	-8(%rbp), %rax
	movq	16(%rax), %r8
	movq	-8(%rbp), %rcx
	movq	-8(%rbp), %rax
	movl	$3, %edx
	movq	%rcx, %rsi
	movq	%rax, %rdi
	call	*%r8
.L75:
	nop
	leave
	.cfi_def_cfa 7, 8
	ret
	.cfi_endproc
.LFE2611:
	.globl	__gxx_personality_v0
	.section	.gcc_except_table._ZNSt14_Function_baseD2Ev,"aG",@progbits,_ZNSt14_Function_baseD5Ev,comdat
.LLSDA2611:
	.byte	0xff
	.byte	0xff
	.byte	0x1
	.uleb128 .LLSDACSE2611-.LLSDACSB2611
.LLSDACSB2611:
.LLSDACSE2611:
	.section	.text._ZNSt14_Function_baseD2Ev,"axG",@progbits,_ZNSt14_Function_baseD5Ev,comdat
	.size	_ZNSt14_Function_baseD2Ev, .-_ZNSt14_Function_baseD2Ev
	.weak	_ZNSt14_Function_baseD1Ev
	.set	_ZNSt14_Function_baseD1Ev,_ZNSt14_Function_baseD2Ev
	.section	.text._ZNKSt14_Function_base8_M_emptyEv,"axG",@progbits,_ZNKSt14_Function_base8_M_emptyEv,comdat
	.align 2
	.weak	_ZNKSt14_Function_base8_M_emptyEv
	.type	_ZNKSt14_Function_base8_M_emptyEv, @function
_ZNKSt14_Function_base8_M_emptyEv:
.LFB2613:
	.cfi_startproc
	endbr64
	pushq	%rbp
	.cfi_def_cfa_offset 16
	.cfi_offset 6, -16
	movq	%rsp, %rbp
	.cfi_def_cfa_register 6
	movq	%rdi, -8(%rbp)
	movq	-8(%rbp), %rax
	movq	16(%rax), %rax
	testq	%rax, %rax
	sete	%al
	popq	%rbp
	.cfi_def_cfa 7, 8
	ret
	.cfi_endproc
.LFE2613:
	.size	_ZNKSt14_Function_base8_M_emptyEv, .-_ZNKSt14_Function_base8_M_emptyEv
	.section	.text._ZSt3minImERKT_S2_S2_,"axG",@progbits,_ZSt3minImERKT_S2_S2_,comdat
	.weak	_ZSt3minImERKT_S2_S2_
	.type	_ZSt3minImERKT_S2_S2_, @function
_ZSt3minImERKT_S2_S2_:
.LFB2704:
	.cfi_startproc
	endbr64
	pushq	%rbp
	.cfi_def_cfa_offset 16
	.cfi_offset 6, -16
	movq	%rsp, %rbp
	.cfi_def_cfa_register 6
	movq	%rdi, -8(%rbp)
	movq	%rsi, -16(%rbp)
	movq	-16(%rbp), %rax
	movq	(%rax), %rdx
	movq	-8(%rbp), %rax
	movq	(%rax), %rax
	cmpq	%rax, %rdx
	jnb	.L79
	movq	-16(%rbp), %rax
	jmp	.L80
.L79:
	movq	-8(%rbp), %rax
.L80:
	popq	%rbp
	.cfi_def_cfa 7, 8
	ret
	.cfi_endproc
.LFE2704:
	.size	_ZSt3minImERKT_S2_S2_, .-_ZSt3minImERKT_S2_S2_
	.section	.rodata
	.type	_ZN6__pstl9execution2v1L3seqE, @object
	.size	_ZN6__pstl9execution2v1L3seqE, 1
_ZN6__pstl9execution2v1L3seqE:
	.zero	1
	.type	_ZN6__pstl9execution2v1L3parE, @object
	.size	_ZN6__pstl9execution2v1L3parE, 1
_ZN6__pstl9execution2v1L3parE:
	.zero	1
	.type	_ZN6__pstl9execution2v1L9par_unseqE, @object
	.size	_ZN6__pstl9execution2v1L9par_unseqE, 1
_ZN6__pstl9execution2v1L9par_unseqE:
	.zero	1
	.type	_ZN6__pstl9execution2v1L5unseqE, @object
	.size	_ZN6__pstl9execution2v1L5unseqE, 1
_ZN6__pstl9execution2v1L5unseqE:
	.zero	1
	.align 4
	.type	_ZN9__gnu_cxxL21__default_lock_policyE, @object
	.size	_ZN9__gnu_cxxL21__default_lock_policyE, 4
_ZN9__gnu_cxxL21__default_lock_policyE:
	.long	2
	.weak	_ZZNSt19_Sp_make_shared_tag5_S_tiEvE5__tag
	.section	.rodata._ZZNSt19_Sp_make_shared_tag5_S_tiEvE5__tag,"aG",@progbits,_ZZNSt19_Sp_make_shared_tag5_S_tiEvE5__tag,comdat
	.align 8
	.type	_ZZNSt19_Sp_make_shared_tag5_S_tiEvE5__tag, @gnu_unique_object
	.size	_ZZNSt19_Sp_make_shared_tag5_S_tiEvE5__tag, 16
_ZZNSt19_Sp_make_shared_tag5_S_tiEvE5__tag:
	.zero	16
	.section	.text._ZNSt19_Sp_make_shared_tag5_S_tiEv,"axG",@progbits,_ZNSt19_Sp_make_shared_tag5_S_tiEv,comdat
	.weak	_ZNSt19_Sp_make_shared_tag5_S_tiEv
	.type	_ZNSt19_Sp_make_shared_tag5_S_tiEv, @function
_ZNSt19_Sp_make_shared_tag5_S_tiEv:
.LFB3727:
	.cfi_startproc
	endbr64
	pushq	%rbp
	.cfi_def_cfa_offset 16
	.cfi_offset 6, -16
	movq	%rsp, %rbp
	.cfi_def_cfa_register 6
	leaq	_ZZNSt19_Sp_make_shared_tag5_S_tiEvE5__tag(%rip), %rax
	popq	%rbp
	.cfi_def_cfa 7, 8
	ret
	.cfi_endproc
.LFE3727:
	.size	_ZNSt19_Sp_make_shared_tag5_S_tiEv, .-_ZNSt19_Sp_make_shared_tag5_S_tiEv
	.section	.text._ZSt16__deque_buf_sizem,"axG",@progbits,_ZSt16__deque_buf_sizem,comdat
	.weak	_ZSt16__deque_buf_sizem
	.type	_ZSt16__deque_buf_sizem, @function
_ZSt16__deque_buf_sizem:
.LFB4138:
	.cfi_startproc
	endbr64
	pushq	%rbp
	.cfi_def_cfa_offset 16
	.cfi_offset 6, -16
	movq	%rsp, %rbp
	.cfi_def_cfa_register 6
	movq	%rdi, -8(%rbp)
	cmpq	$511, -8(%rbp)
	ja	.L84
	movl	$512, %eax
	movl	$0, %edx
	divq	-8(%rbp)
	jmp	.L86
.L84:
	movl	$1, %eax
.L86:
	popq	%rbp
	.cfi_def_cfa 7, 8
	ret
	.cfi_endproc
.LFE4138:
	.size	_ZSt16__deque_buf_sizem, .-_ZSt16__deque_buf_sizem
	.section	.text._ZNSt15_Rb_tree_headerC2Ev,"axG",@progbits,_ZNSt15_Rb_tree_headerC5Ev,comdat
	.align 2
	.weak	_ZNSt15_Rb_tree_headerC2Ev
	.type	_ZNSt15_Rb_tree_headerC2Ev, @function
_ZNSt15_Rb_tree_headerC2Ev:
.LFB4360:
	.cfi_startproc
	endbr64
	pushq	%rbp
	.cfi_def_cfa_offset 16
	.cfi_offset 6, -16
	movq	%rsp, %rbp
	.cfi_def_cfa_register 6
	subq	$16, %rsp
	movq	%rdi, -8(%rbp)
	movq	-8(%rbp), %rax
	movl	$0, (%rax)
	movq	-8(%rbp), %rax
	movq	%rax, %rdi
	call	_ZNSt15_Rb_tree_header8_M_resetEv
	nop
	leave
	.cfi_def_cfa 7, 8
	ret
	.cfi_endproc
.LFE4360:
	.size	_ZNSt15_Rb_tree_headerC2Ev, .-_ZNSt15_Rb_tree_headerC2Ev
	.weak	_ZNSt15_Rb_tree_headerC1Ev
	.set	_ZNSt15_Rb_tree_headerC1Ev,_ZNSt15_Rb_tree_headerC2Ev
	.section	.text._ZNSt15_Rb_tree_header8_M_resetEv,"axG",@progbits,_ZNSt15_Rb_tree_header8_M_resetEv,comdat
	.align 2
	.weak	_ZNSt15_Rb_tree_header8_M_resetEv
	.type	_ZNSt15_Rb_tree_header8_M_resetEv, @function
_ZNSt15_Rb_tree_header8_M_resetEv:
.LFB4366:
	.cfi_startproc
	endbr64
	pushq	%rbp
	.cfi_def_cfa_offset 16
	.cfi_offset 6, -16
	movq	%rsp, %rbp
	.cfi_def_cfa_register 6
	movq	%rdi, -8(%rbp)
	movq	-8(%rbp), %rax
	movq	$0, 8(%rax)
	movq	-8(%rbp), %rdx
	movq	-8(%rbp), %rax
	movq	%rdx, 16(%rax)
	movq	-8(%rbp), %rdx
	movq	-8(%rbp), %rax
	movq	%rdx, 24(%rax)
	movq	-8(%rbp), %rax
	movq	$0, 32(%rax)
	nop
	popq	%rbp
	.cfi_def_cfa 7, 8
	ret
	.cfi_endproc
.LFE4366:
	.size	_ZNSt15_Rb_tree_header8_M_resetEv, .-_ZNSt15_Rb_tree_header8_M_resetEv
	.section	.text._ZNSt15regex_constantsanENS_18syntax_option_typeES0_,"axG",@progbits,_ZNSt15regex_constantsanENS_18syntax_option_typeES0_,comdat
	.weak	_ZNSt15regex_constantsanENS_18syntax_option_typeES0_
	.type	_ZNSt15regex_constantsanENS_18syntax_option_typeES0_, @function
_ZNSt15regex_constantsanENS_18syntax_option_typeES0_:
.LFB4708:
	.cfi_startproc
	endbr64
	pushq	%rbp
	.cfi_def_cfa_offset 16
	.cfi_offset 6, -16
	movq	%rsp, %rbp
	.cfi_def_cfa_register 6
	movl	%edi, -4(%rbp)
	movl	%esi, -8(%rbp)
	movl	-4(%rbp), %eax
	andl	-8(%rbp), %eax
	popq	%rbp
	.cfi_def_cfa 7, 8
	ret
	.cfi_endproc
.LFE4708:
	.size	_ZNSt15regex_constantsanENS_18syntax_option_typeES0_, .-_ZNSt15regex_constantsanENS_18syntax_option_typeES0_
	.section	.text._ZNSt15regex_constantsorENS_18syntax_option_typeES0_,"axG",@progbits,_ZNSt15regex_constantsorENS_18syntax_option_typeES0_,comdat
	.weak	_ZNSt15regex_constantsorENS_18syntax_option_typeES0_
	.type	_ZNSt15regex_constantsorENS_18syntax_option_typeES0_, @function
_ZNSt15regex_constantsorENS_18syntax_option_typeES0_:
.LFB4709:
	.cfi_startproc
	endbr64
	pushq	%rbp
	.cfi_def_cfa_offset 16
	.cfi_offset 6, -16
	movq	%rsp, %rbp
	.cfi_def_cfa_register 6
	movl	%edi, -4(%rbp)
	movl	%esi, -8(%rbp)
	movl	-4(%rbp), %eax
	orl	-8(%rbp), %eax
	popq	%rbp
	.cfi_def_cfa 7, 8
	ret
	.cfi_endproc
.LFE4709:
	.size	_ZNSt15regex_constantsorENS_18syntax_option_typeES0_, .-_ZNSt15regex_constantsorENS_18syntax_option_typeES0_
	.section	.text._ZNSt15regex_constantsanENS_15match_flag_typeES0_,"axG",@progbits,_ZNSt15regex_constantsanENS_15match_flag_typeES0_,comdat
	.weak	_ZNSt15regex_constantsanENS_15match_flag_typeES0_
	.type	_ZNSt15regex_constantsanENS_15match_flag_typeES0_, @function
_ZNSt15regex_constantsanENS_15match_flag_typeES0_:
.LFB4715:
	.cfi_startproc
	endbr64
	pushq	%rbp
	.cfi_def_cfa_offset 16
	.cfi_offset 6, -16
	movq	%rsp, %rbp
	.cfi_def_cfa_register 6
	movl	%edi, -4(%rbp)
	movl	%esi, -8(%rbp)
	movl	-4(%rbp), %eax
	andl	-8(%rbp), %eax
	popq	%rbp
	.cfi_def_cfa 7, 8
	ret
	.cfi_endproc
.LFE4715:
	.size	_ZNSt15regex_constantsanENS_15match_flag_typeES0_, .-_ZNSt15regex_constantsanENS_15match_flag_typeES0_
	.section	.text._ZNSt15regex_constantsorENS_15match_flag_typeES0_,"axG",@progbits,_ZNSt15regex_constantsorENS_15match_flag_typeES0_,comdat
	.weak	_ZNSt15regex_constantsorENS_15match_flag_typeES0_
	.type	_ZNSt15regex_constantsorENS_15match_flag_typeES0_, @function
_ZNSt15regex_constantsorENS_15match_flag_typeES0_:
.LFB4716:
	.cfi_startproc
	endbr64
	pushq	%rbp
	.cfi_def_cfa_offset 16
	.cfi_offset 6, -16
	movq	%rsp, %rbp
	.cfi_def_cfa_register 6
	movl	%edi, -4(%rbp)
	movl	%esi, -8(%rbp)
	movl	-4(%rbp), %eax
	orl	-8(%rbp), %eax
	popq	%rbp
	.cfi_def_cfa 7, 8
	ret
	.cfi_endproc
.LFE4716:
	.size	_ZNSt15regex_constantsorENS_15match_flag_typeES0_, .-_ZNSt15regex_constantsorENS_15match_flag_typeES0_
	.section	.text._ZNSt15regex_constantscoENS_15match_flag_typeE,"axG",@progbits,_ZNSt15regex_constantscoENS_15match_flag_typeE,comdat
	.weak	_ZNSt15regex_constantscoENS_15match_flag_typeE
	.type	_ZNSt15regex_constantscoENS_15match_flag_typeE, @function
_ZNSt15regex_constantscoENS_15match_flag_typeE:
.LFB4718:
	.cfi_startproc
	endbr64
	pushq	%rbp
	.cfi_def_cfa_offset 16
	.cfi_offset 6, -16
	movq	%rsp, %rbp
	.cfi_def_cfa_register 6
	movl	%edi, -4(%rbp)
	movl	-4(%rbp), %eax
	notl	%eax
	popq	%rbp
	.cfi_def_cfa 7, 8
	ret
	.cfi_endproc
.LFE4718:
	.size	_ZNSt15regex_constantscoENS_15match_flag_typeE, .-_ZNSt15regex_constantscoENS_15match_flag_typeE
	.section	.text._ZNSt15regex_constantsoRERNS_15match_flag_typeES0_,"axG",@progbits,_ZNSt15regex_constantsoRERNS_15match_flag_typeES0_,comdat
	.weak	_ZNSt15regex_constantsoRERNS_15match_flag_typeES0_
	.type	_ZNSt15regex_constantsoRERNS_15match_flag_typeES0_, @function
_ZNSt15regex_constantsoRERNS_15match_flag_typeES0_:
.LFB4720:
	.cfi_startproc
	endbr64
	pushq	%rbp
	.cfi_def_cfa_offset 16
	.cfi_offset 6, -16
	movq	%rsp, %rbp
	.cfi_def_cfa_register 6
	subq	$16, %rsp
	movq	%rdi, -8(%rbp)
	movl	%esi, -12(%rbp)
	movq	-8(%rbp), %rax
	movl	(%rax), %eax
	movl	-12(%rbp), %edx
	movl	%edx, %esi
	movl	%eax, %edi
	call	_ZNSt15regex_constantsorENS_15match_flag_typeES0_
	movq	-8(%rbp), %rdx
	movl	%eax, (%rdx)
	movq	-8(%rbp), %rax
	leave
	.cfi_def_cfa 7, 8
	ret
	.cfi_endproc
.LFE4720:
	.size	_ZNSt15regex_constantsoRERNS_15match_flag_typeES0_, .-_ZNSt15regex_constantsoRERNS_15match_flag_typeES0_
	.section	.rodata
	.align 4
	.type	_ZNSt15regex_constantsL13error_collateE, @object
	.size	_ZNSt15regex_constantsL13error_collateE, 4
_ZNSt15regex_constantsL13error_collateE:
	.zero	4
	.align 4
	.type	_ZNSt15regex_constantsL11error_ctypeE, @object
	.size	_ZNSt15regex_constantsL11error_ctypeE, 4
_ZNSt15regex_constantsL11error_ctypeE:
	.long	1
	.align 4
	.type	_ZNSt15regex_constantsL12error_escapeE, @object
	.size	_ZNSt15regex_constantsL12error_escapeE, 4
_ZNSt15regex_constantsL12error_escapeE:
	.long	2
	.align 4
	.type	_ZNSt15regex_constantsL13error_backrefE, @object
	.size	_ZNSt15regex_constantsL13error_backrefE, 4
_ZNSt15regex_constantsL13error_backrefE:
	.long	3
	.align 4
	.type	_ZNSt15regex_constantsL11error_brackE, @object
	.size	_ZNSt15regex_constantsL11error_brackE, 4
_ZNSt15regex_constantsL11error_brackE:
	.long	4
	.align 4
	.type	_ZNSt15regex_constantsL11error_parenE, @object
	.size	_ZNSt15regex_constantsL11error_parenE, 4
_ZNSt15regex_constantsL11error_parenE:
	.long	5
	.align 4
	.type	_ZNSt15regex_constantsL11error_braceE, @object
	.size	_ZNSt15regex_constantsL11error_braceE, 4
_ZNSt15regex_constantsL11error_braceE:
	.long	6
	.align 4
	.type	_ZNSt15regex_constantsL14error_badbraceE, @object
	.size	_ZNSt15regex_constantsL14error_badbraceE, 4
_ZNSt15regex_constantsL14error_badbraceE:
	.long	7
	.align 4
	.type	_ZNSt15regex_constantsL11error_rangeE, @object
	.size	_ZNSt15regex_constantsL11error_rangeE, 4
_ZNSt15regex_constantsL11error_rangeE:
	.long	8
	.align 4
	.type	_ZNSt15regex_constantsL11error_spaceE, @object
	.size	_ZNSt15regex_constantsL11error_spaceE, 4
_ZNSt15regex_constantsL11error_spaceE:
	.long	9
	.align 4
	.type	_ZNSt15regex_constantsL15error_badrepeatE, @object
	.size	_ZNSt15regex_constantsL15error_badrepeatE, 4
_ZNSt15regex_constantsL15error_badrepeatE:
	.long	10
	.align 4
	.type	_ZNSt15regex_constantsL16error_complexityE, @object
	.size	_ZNSt15regex_constantsL16error_complexityE, 4
_ZNSt15regex_constantsL16error_complexityE:
	.long	11
	.align 4
	.type	_ZNSt15regex_constantsL11error_stackE, @object
	.size	_ZNSt15regex_constantsL11error_stackE, 4
_ZNSt15regex_constantsL11error_stackE:
	.long	12
	.section	.text._ZNSt11regex_errorC2ENSt15regex_constants10error_typeEPKc,"axG",@progbits,_ZNSt11regex_errorC5ENSt15regex_constants10error_typeEPKc,comdat
	.align 2
	.weak	_ZNSt11regex_errorC2ENSt15regex_constants10error_typeEPKc
	.type	_ZNSt11regex_errorC2ENSt15regex_constants10error_typeEPKc, @function
_ZNSt11regex_errorC2ENSt15regex_constants10error_typeEPKc:
.LFB4724:
	.cfi_startproc
	endbr64
	pushq	%rbp
	.cfi_def_cfa_offset 16
	.cfi_offset 6, -16
	movq	%rsp, %rbp
	.cfi_def_cfa_register 6
	subq	$32, %rsp
	movq	%rdi, -8(%rbp)
	movl	%esi, -12(%rbp)
	movq	%rdx, -24(%rbp)
	movq	-8(%rbp), %rax
	movq	-24(%rbp), %rdx
	movq	%rdx, %rsi
	movq	%rax, %rdi
	call	_ZNSt13runtime_errorC2EPKc@PLT
	leaq	16+_ZTVSt11regex_error(%rip), %rdx
	movq	-8(%rbp), %rax
	movq	%rdx, (%rax)
	movq	-8(%rbp), %rax
	movl	-12(%rbp), %edx
	movl	%edx, 16(%rax)
	nop
	leave
	.cfi_def_cfa 7, 8
	ret
	.cfi_endproc
.LFE4724:
	.size	_ZNSt11regex_errorC2ENSt15regex_constants10error_typeEPKc, .-_ZNSt11regex_errorC2ENSt15regex_constants10error_typeEPKc
	.weak	_ZNSt11regex_errorC1ENSt15regex_constants10error_typeEPKc
	.set	_ZNSt11regex_errorC1ENSt15regex_constants10error_typeEPKc,_ZNSt11regex_errorC2ENSt15regex_constants10error_typeEPKc
	.section	.text._ZSt19__throw_regex_errorNSt15regex_constants10error_typeEPKc,"axG",@progbits,_ZSt19__throw_regex_errorNSt15regex_constants10error_typeEPKc,comdat
	.weak	_ZSt19__throw_regex_errorNSt15regex_constants10error_typeEPKc
	.type	_ZSt19__throw_regex_errorNSt15regex_constants10error_typeEPKc, @function
_ZSt19__throw_regex_errorNSt15regex_constants10error_typeEPKc:
.LFB4726:
	.cfi_startproc
	.cfi_personality 0x9b,DW.ref.__gxx_personality_v0
	.cfi_lsda 0x1b,.LLSDA4726
	endbr64
	pushq	%rbp
	.cfi_def_cfa_offset 16
	.cfi_offset 6, -16
	movq	%rsp, %rbp
	.cfi_def_cfa_register 6
	pushq	%r12
	pushq	%rbx
	subq	$16, %rsp
	.cfi_offset 12, -24
	.cfi_offset 3, -32
	movl	%edi, -20(%rbp)
	movq	%rsi, -32(%rbp)
	movl	$24, %edi
	call	__cxa_allocate_exception@PLT
	movq	%rax, %rbx
	movq	-32(%rbp), %rdx
	movl	-20(%rbp), %eax
	movl	%eax, %esi
	movq	%rbx, %rdi
.LEHB0:
	call	_ZNSt11regex_errorC1ENSt15regex_constants10error_typeEPKc
.LEHE0:
	movq	_ZNSt11regex_errorD1Ev@GOTPCREL(%rip), %rax
	movq	%rax, %rdx
	leaq	_ZTISt11regex_error(%rip), %rax
	movq	%rax, %rsi
	movq	%rbx, %rdi
.LEHB1:
	call	__cxa_throw@PLT
.L104:
	endbr64
	movq	%rax, %r12
	movq	%rbx, %rdi
	call	__cxa_free_exception@PLT
	movq	%r12, %rax
	movq	%rax, %rdi
	call	_Unwind_Resume@PLT
.LEHE1:
	.cfi_endproc
.LFE4726:
	.section	.gcc_except_table._ZSt19__throw_regex_errorNSt15regex_constants10error_typeEPKc,"aG",@progbits,_ZSt19__throw_regex_errorNSt15regex_constants10error_typeEPKc,comdat
.LLSDA4726:
	.byte	0xff
	.byte	0xff
	.byte	0x1
	.uleb128 .LLSDACSE4726-.LLSDACSB4726
.LLSDACSB4726:
	.uleb128 .LEHB0-.LFB4726
	.uleb128 .LEHE0-.LEHB0
	.uleb128 .L104-.LFB4726
	.uleb128 0
	.uleb128 .LEHB1-.LFB4726
	.uleb128 .LEHE1-.LEHB1
	.uleb128 0
	.uleb128 0
.LLSDACSE4726:
	.section	.text._ZSt19__throw_regex_errorNSt15regex_constants10error_typeEPKc,"axG",@progbits,_ZSt19__throw_regex_errorNSt15regex_constants10error_typeEPKc,comdat
	.size	_ZSt19__throw_regex_errorNSt15regex_constants10error_typeEPKc, .-_ZSt19__throw_regex_errorNSt15regex_constants10error_typeEPKc
	.section	.rodata
	.align 8
	.type	_ZNSt8__detailL19_S_invalid_state_idE, @object
	.size	_ZNSt8__detailL19_S_invalid_state_idE, 8
_ZNSt8__detailL19_S_invalid_state_idE:
	.quad	-1
	.section	.text._ZNSt8__detail11_State_baseC2ENS_7_OpcodeE,"axG",@progbits,_ZNSt8__detail11_State_baseC5ENS_7_OpcodeE,comdat
	.align 2
	.weak	_ZNSt8__detail11_State_baseC2ENS_7_OpcodeE
	.type	_ZNSt8__detail11_State_baseC2ENS_7_OpcodeE, @function
_ZNSt8__detail11_State_baseC2ENS_7_OpcodeE:
.LFB4728:
	.cfi_startproc
	endbr64
	pushq	%rbp
	.cfi_def_cfa_offset 16
	.cfi_offset 6, -16
	movq	%rsp, %rbp
	.cfi_def_cfa_register 6
	movq	%rdi, -8(%rbp)
	movl	%esi, -12(%rbp)
	movq	-8(%rbp), %rax
	movl	-12(%rbp), %edx
	movl	%edx, (%rax)
	movq	-8(%rbp), %rax
	movq	$-1, 8(%rax)
	nop
	popq	%rbp
	.cfi_def_cfa 7, 8
	ret
	.cfi_endproc
.LFE4728:
	.size	_ZNSt8__detail11_State_baseC2ENS_7_OpcodeE, .-_ZNSt8__detail11_State_baseC2ENS_7_OpcodeE
	.weak	_ZNSt8__detail11_State_baseC1ENS_7_OpcodeE
	.set	_ZNSt8__detail11_State_baseC1ENS_7_OpcodeE,_ZNSt8__detail11_State_baseC2ENS_7_OpcodeE
	.section	.text._ZNSt8__detail11_State_base10_M_has_altEv,"axG",@progbits,_ZNSt8__detail11_State_base10_M_has_altEv,comdat
	.align 2
	.weak	_ZNSt8__detail11_State_base10_M_has_altEv
	.type	_ZNSt8__detail11_State_base10_M_has_altEv, @function
_ZNSt8__detail11_State_base10_M_has_altEv:
.LFB4730:
	.cfi_startproc
	endbr64
	pushq	%rbp
	.cfi_def_cfa_offset 16
	.cfi_offset 6, -16
	movq	%rsp, %rbp
	.cfi_def_cfa_register 6
	movq	%rdi, -8(%rbp)
	movq	-8(%rbp), %rax
	movl	(%rax), %eax
	cmpl	$1, %eax
	je	.L107
	movq	-8(%rbp), %rax
	movl	(%rax), %eax
	cmpl	$2, %eax
	je	.L107
	movq	-8(%rbp), %rax
	movl	(%rax), %eax
	cmpl	$7, %eax
	jne	.L108
.L107:
	movl	$1, %eax
	jmp	.L109
.L108:
	movl	$0, %eax
.L109:
	popq	%rbp
	.cfi_def_cfa 7, 8
	ret
	.cfi_endproc
.LFE4730:
	.size	_ZNSt8__detail11_State_base10_M_has_altEv, .-_ZNSt8__detail11_State_base10_M_has_altEv
	.section	.text._ZNSt12_Vector_baseImSaImEE12_Vector_implD2Ev,"axG",@progbits,_ZNSt12_Vector_baseImSaImEE12_Vector_implD5Ev,comdat
	.align 2
	.weak	_ZNSt12_Vector_baseImSaImEE12_Vector_implD2Ev
	.type	_ZNSt12_Vector_baseImSaImEE12_Vector_implD2Ev, @function
_ZNSt12_Vector_baseImSaImEE12_Vector_implD2Ev:
.LFB4744:
	.cfi_startproc
	endbr64
	pushq	%rbp
	.cfi_def_cfa_offset 16
	.cfi_offset 6, -16
	movq	%rsp, %rbp
	.cfi_def_cfa_register 6
	subq	$16, %rsp
	movq	%rdi, -8(%rbp)
	movq	-8(%rbp), %rax
	movq	%rax, %rdi
	call	_ZNSaImED2Ev
	nop
	leave
	.cfi_def_cfa 7, 8
	ret
	.cfi_endproc
.LFE4744:
	.size	_ZNSt12_Vector_baseImSaImEE12_Vector_implD2Ev, .-_ZNSt12_Vector_baseImSaImEE12_Vector_implD2Ev
	.weak	_ZNSt12_Vector_baseImSaImEE12_Vector_implD1Ev
	.set	_ZNSt12_Vector_baseImSaImEE12_Vector_implD1Ev,_ZNSt12_Vector_baseImSaImEE12_Vector_implD2Ev
	.section	.text._ZNSt12_Vector_baseImSaImEEC2Ev,"axG",@progbits,_ZNSt12_Vector_baseImSaImEEC5Ev,comdat
	.align 2
	.weak	_ZNSt12_Vector_baseImSaImEEC2Ev
	.type	_ZNSt12_Vector_baseImSaImEEC2Ev, @function
_ZNSt12_Vector_baseImSaImEEC2Ev:
.LFB4746:
	.cfi_startproc
	endbr64
	pushq	%rbp
	.cfi_def_cfa_offset 16
	.cfi_offset 6, -16
	movq	%rsp, %rbp
	.cfi_def_cfa_register 6
	subq	$16, %rsp
	movq	%rdi, -8(%rbp)
	movq	-8(%rbp), %rax
	movq	%rax, %rdi
	call	_ZNSt12_Vector_baseImSaImEE12_Vector_implC1Ev
	nop
	leave
	.cfi_def_cfa 7, 8
	ret
	.cfi_endproc
.LFE4746:
	.size	_ZNSt12_Vector_baseImSaImEEC2Ev, .-_ZNSt12_Vector_baseImSaImEEC2Ev
	.weak	_ZNSt12_Vector_baseImSaImEEC1Ev
	.set	_ZNSt12_Vector_baseImSaImEEC1Ev,_ZNSt12_Vector_baseImSaImEEC2Ev
	.section	.text._ZNSt6vectorImSaImEEC2Ev,"axG",@progbits,_ZNSt6vectorImSaImEEC5Ev,comdat
	.align 2
	.weak	_ZNSt6vectorImSaImEEC2Ev
	.type	_ZNSt6vectorImSaImEEC2Ev, @function
_ZNSt6vectorImSaImEEC2Ev:
.LFB4748:
	.cfi_startproc
	endbr64
	pushq	%rbp
	.cfi_def_cfa_offset 16
	.cfi_offset 6, -16
	movq	%rsp, %rbp
	.cfi_def_cfa_register 6
	subq	$16, %rsp
	movq	%rdi, -8(%rbp)
	movq	-8(%rbp), %rax
	movq	%rax, %rdi
	call	_ZNSt12_Vector_baseImSaImEEC2Ev
	nop
	leave
	.cfi_def_cfa 7, 8
	ret
	.cfi_endproc
.LFE4748:
	.size	_ZNSt6vectorImSaImEEC2Ev, .-_ZNSt6vectorImSaImEEC2Ev
	.weak	_ZNSt6vectorImSaImEEC1Ev
	.set	_ZNSt6vectorImSaImEEC1Ev,_ZNSt6vectorImSaImEEC2Ev
	.section	.text._ZNSt8__detail9_NFA_baseC2ENSt15regex_constants18syntax_option_typeE,"axG",@progbits,_ZNSt8__detail9_NFA_baseC5ENSt15regex_constants18syntax_option_typeE,comdat
	.align 2
	.weak	_ZNSt8__detail9_NFA_baseC2ENSt15regex_constants18syntax_option_typeE
	.type	_ZNSt8__detail9_NFA_baseC2ENSt15regex_constants18syntax_option_typeE, @function
_ZNSt8__detail9_NFA_baseC2ENSt15regex_constants18syntax_option_typeE:
.LFB4750:
	.cfi_startproc
	endbr64
	pushq	%rbp
	.cfi_def_cfa_offset 16
	.cfi_offset 6, -16
	movq	%rsp, %rbp
	.cfi_def_cfa_register 6
	subq	$16, %rsp
	movq	%rdi, -8(%rbp)
	movl	%esi, -12(%rbp)
	movq	-8(%rbp), %rax
	movq	%rax, %rdi
	call	_ZNSt6vectorImSaImEEC1Ev
	movq	-8(%rbp), %rax
	movl	-12(%rbp), %edx
	movl	%edx, 24(%rax)
	movq	-8(%rbp), %rax
	movq	$0, 32(%rax)
	movq	-8(%rbp), %rax
	movq	$0, 40(%rax)
	movq	-8(%rbp), %rax
	movb	$0, 48(%rax)
	nop
	leave
	.cfi_def_cfa 7, 8
	ret
	.cfi_endproc
.LFE4750:
	.size	_ZNSt8__detail9_NFA_baseC2ENSt15regex_constants18syntax_option_typeE, .-_ZNSt8__detail9_NFA_baseC2ENSt15regex_constants18syntax_option_typeE
	.weak	_ZNSt8__detail9_NFA_baseC1ENSt15regex_constants18syntax_option_typeE
	.set	_ZNSt8__detail9_NFA_baseC1ENSt15regex_constants18syntax_option_typeE,_ZNSt8__detail9_NFA_baseC2ENSt15regex_constants18syntax_option_typeE
	.section	.text._ZNKSt8__detail9_NFA_base8_M_startEv,"axG",@progbits,_ZNKSt8__detail9_NFA_base8_M_startEv,comdat
	.align 2
	.weak	_ZNKSt8__detail9_NFA_base8_M_startEv
	.type	_ZNKSt8__detail9_NFA_base8_M_startEv, @function
_ZNKSt8__detail9_NFA_base8_M_startEv:
.LFB4753:
	.cfi_startproc
	endbr64
	pushq	%rbp
	.cfi_def_cfa_offset 16
	.cfi_offset 6, -16
	movq	%rsp, %rbp
	.cfi_def_cfa_register 6
	movq	%rdi, -8(%rbp)
	movq	-8(%rbp), %rax
	movq	32(%rax), %rax
	popq	%rbp
	.cfi_def_cfa 7, 8
	ret
	.cfi_endproc
.LFE4753:
	.size	_ZNKSt8__detail9_NFA_base8_M_startEv, .-_ZNKSt8__detail9_NFA_base8_M_startEv
	.section	.text._ZNKSt8__detail9_NFA_base12_M_sub_countEv,"axG",@progbits,_ZNKSt8__detail9_NFA_base12_M_sub_countEv,comdat
	.align 2
	.weak	_ZNKSt8__detail9_NFA_base12_M_sub_countEv
	.type	_ZNKSt8__detail9_NFA_base12_M_sub_countEv, @function
_ZNKSt8__detail9_NFA_base12_M_sub_countEv:
.LFB4754:
	.cfi_startproc
	endbr64
	pushq	%rbp
	.cfi_def_cfa_offset 16
	.cfi_offset 6, -16
	movq	%rsp, %rbp
	.cfi_def_cfa_register 6
	movq	%rdi, -8(%rbp)
	movq	-8(%rbp), %rax
	movq	40(%rax), %rax
	popq	%rbp
	.cfi_def_cfa 7, 8
	ret
	.cfi_endproc
.LFE4754:
	.size	_ZNKSt8__detail9_NFA_base12_M_sub_countEv, .-_ZNKSt8__detail9_NFA_base12_M_sub_countEv
	.section	.text._ZSt7forwardIcEOT_RNSt16remove_referenceIS0_E4typeE,"axG",@progbits,_ZSt7forwardIcEOT_RNSt16remove_referenceIS0_E4typeE,comdat
	.weak	_ZSt7forwardIcEOT_RNSt16remove_referenceIS0_E4typeE
	.type	_ZSt7forwardIcEOT_RNSt16remove_referenceIS0_E4typeE, @function
_ZSt7forwardIcEOT_RNSt16remove_referenceIS0_E4typeE:
.LFB4788:
	.cfi_startproc
	endbr64
	pushq	%rbp
	.cfi_def_cfa_offset 16
	.cfi_offset 6, -16
	movq	%rsp, %rbp
	.cfi_def_cfa_register 6
	movq	%rdi, -8(%rbp)
	movq	-8(%rbp), %rax
	popq	%rbp
	.cfi_def_cfa 7, 8
	ret
	.cfi_endproc
.LFE4788:
	.size	_ZSt7forwardIcEOT_RNSt16remove_referenceIS0_E4typeE, .-_ZSt7forwardIcEOT_RNSt16remove_referenceIS0_E4typeE
	.section	.text._ZNSt4pairIccEC1IccLb1EEEOT_OT0_,"axG",@progbits,_ZNSt4pairIccEC1IccLb1EEEOT_OT0_,comdat
	.align 2
	.weak	_ZNSt4pairIccEC1IccLb1EEEOT_OT0_
	.type	_ZNSt4pairIccEC1IccLb1EEEOT_OT0_, @function
_ZNSt4pairIccEC1IccLb1EEEOT_OT0_:
.LFB4800:
	.cfi_startproc
	endbr64
	pushq	%rbp
	.cfi_def_cfa_offset 16
	.cfi_offset 6, -16
	movq	%rsp, %rbp
	.cfi_def_cfa_register 6
	subq	$32, %rsp
	movq	%rdi, -8(%rbp)
	movq	%rsi, -16(%rbp)
	movq	%rdx, -24(%rbp)
	movq	-16(%rbp), %rax
	movq	%rax, %rdi
	call	_ZSt7forwardIcEOT_RNSt16remove_referenceIS0_E4typeE
	movzbl	(%rax), %edx
	movq	-8(%rbp), %rax
	movb	%dl, (%rax)
	movq	-24(%rbp), %rax
	movq	%rax, %rdi
	call	_ZSt7forwardIcEOT_RNSt16remove_referenceIS0_E4typeE
	movzbl	(%rax), %edx
	movq	-8(%rbp), %rax
	movb	%dl, 1(%rax)
	nop
	leave
	.cfi_def_cfa 7, 8
	ret
	.cfi_endproc
.LFE4800:
	.size	_ZNSt4pairIccEC1IccLb1EEEOT_OT0_, .-_ZNSt4pairIccEC1IccLb1EEEOT_OT0_
	.section	.rodata
.LC0:
	.string	"^$\\.*+?()[]{}|"
.LC1:
	.string	".[\\*^$"
.LC2:
	.string	".[\\()*+?{|^$"
.LC3:
	.string	".[\\()*+?{|^$\n"
.LC4:
	.string	".[\\*^$\n"
	.section	.text._ZNSt8__detail12_ScannerBaseC2ENSt15regex_constants18syntax_option_typeE,"axG",@progbits,_ZNSt8__detail12_ScannerBaseC5ENSt15regex_constants18syntax_option_typeE,comdat
	.align 2
	.weak	_ZNSt8__detail12_ScannerBaseC2ENSt15regex_constants18syntax_option_typeE
	.type	_ZNSt8__detail12_ScannerBaseC2ENSt15regex_constants18syntax_option_typeE, @function
_ZNSt8__detail12_ScannerBaseC2ENSt15regex_constants18syntax_option_typeE:
.LFB4802:
	.cfi_startproc
	endbr64
	pushq	%rbp
	.cfi_def_cfa_offset 16
	.cfi_offset 6, -16
	movq	%rsp, %rbp
	.cfi_def_cfa_register 6
	subq	$16, %rsp
	movq	%rdi, -8(%rbp)
	movl	%esi, -12(%rbp)
	movq	-8(%rbp), %rax
	movq	$0, (%rax)
	movq	$0, 8(%rax)
	movq	$0, 16(%rax)
	movq	$0, 24(%rax)
	movq	$0, 32(%rax)
	movq	$0, 40(%rax)
	movq	$0, 48(%rax)
	movq	$0, 56(%rax)
	movq	$0, 64(%rax)
	movq	-8(%rbp), %rax
	movb	$94, (%rax)
	movq	-8(%rbp), %rax
	movl	$22, 4(%rax)
	movq	-8(%rbp), %rax
	movb	$36, 8(%rax)
	movq	-8(%rbp), %rax
	movl	$23, 12(%rax)
	movq	-8(%rbp), %rax
	movb	$46, 16(%rax)
	movq	-8(%rbp), %rax
	movb	$42, 24(%rax)
	movq	-8(%rbp), %rax
	movl	$20, 28(%rax)
	movq	-8(%rbp), %rax
	movb	$43, 32(%rax)
	movq	-8(%rbp), %rax
	movl	$21, 36(%rax)
	movq	-8(%rbp), %rax
	movb	$63, 40(%rax)
	movq	-8(%rbp), %rax
	movl	$18, 44(%rax)
	movq	-8(%rbp), %rax
	movb	$124, 48(%rax)
	movq	-8(%rbp), %rax
	movl	$19, 52(%rax)
	movq	-8(%rbp), %rax
	movb	$10, 56(%rax)
	movq	-8(%rbp), %rax
	movl	$19, 60(%rax)
	movq	-8(%rbp), %rax
	movl	$19, 68(%rax)
	movq	-8(%rbp), %rax
	movq	$0, 72(%rax)
	movq	$0, 80(%rax)
	movq	-8(%rbp), %rax
	movb	$48, 72(%rax)
	movq	-8(%rbp), %rax
	movb	$98, 74(%rax)
	movq	-8(%rbp), %rax
	movb	$8, 75(%rax)
	movq	-8(%rbp), %rax
	movb	$102, 76(%rax)
	movq	-8(%rbp), %rax
	movb	$12, 77(%rax)
	movq	-8(%rbp), %rax
	movb	$110, 78(%rax)
	movq	-8(%rbp), %rax
	movb	$10, 79(%rax)
	movq	-8(%rbp), %rax
	movb	$114, 80(%rax)
	movq	-8(%rbp), %rax
	movb	$13, 81(%rax)
	movq	-8(%rbp), %rax
	movb	$116, 82(%rax)
	movq	-8(%rbp), %rax
	movb	$9, 83(%rax)
	movq	-8(%rbp), %rax
	movb	$118, 84(%rax)
	movq	-8(%rbp), %rax
	movb	$11, 85(%rax)
	movq	-8(%rbp), %rax
	movq	$0, 88(%rax)
	movq	$0, 96(%rax)
	movl	$0, 104(%rax)
	movw	$0, 108(%rax)
	movq	-8(%rbp), %rax
	movb	$34, 88(%rax)
	movq	-8(%rbp), %rax
	movb	$34, 89(%rax)
	movq	-8(%rbp), %rax
	movb	$47, 90(%rax)
	movq	-8(%rbp), %rax
	movb	$47, 91(%rax)
	movq	-8(%rbp), %rax
	movb	$92, 92(%rax)
	movq	-8(%rbp), %rax
	movb	$92, 93(%rax)
	movq	-8(%rbp), %rax
	movb	$97, 94(%rax)
	movq	-8(%rbp), %rax
	movb	$7, 95(%rax)
	movq	-8(%rbp), %rax
	movb	$98, 96(%rax)
	movq	-8(%rbp), %rax
	movb	$8, 97(%rax)
	movq	-8(%rbp), %rax
	movb	$102, 98(%rax)
	movq	-8(%rbp), %rax
	movb	$12, 99(%rax)
	movq	-8(%rbp), %rax
	movb	$110, 100(%rax)
	movq	-8(%rbp), %rax
	movb	$10, 101(%rax)
	movq	-8(%rbp), %rax
	movb	$114, 102(%rax)
	movq	-8(%rbp), %rax
	movb	$13, 103(%rax)
	movq	-8(%rbp), %rax
	movb	$116, 104(%rax)
	movq	-8(%rbp), %rax
	movb	$9, 105(%rax)
	movq	-8(%rbp), %rax
	movb	$118, 106(%rax)
	movq	-8(%rbp), %rax
	movb	$11, 107(%rax)
	movq	-8(%rbp), %rax
	leaq	.LC0(%rip), %rdx
	movq	%rdx, 112(%rax)
	movq	-8(%rbp), %rax
	leaq	.LC1(%rip), %rdx
	movq	%rdx, 120(%rax)
	movq	-8(%rbp), %rax
	leaq	.LC2(%rip), %rdx
	movq	%rdx, 128(%rax)
	movq	-8(%rbp), %rax
	movl	$0, 136(%rax)
	movq	-8(%rbp), %rax
	movl	-12(%rbp), %edx
	movl	%edx, 140(%rax)
	movq	-8(%rbp), %rax
	movq	%rax, %rdi
	call	_ZNKSt8__detail12_ScannerBase10_M_is_ecmaEv
	testb	%al, %al
	je	.L123
	movq	-8(%rbp), %rax
	addq	$72, %rax
	jmp	.L124
.L123:
	movq	-8(%rbp), %rax
	addq	$88, %rax
.L124:
	movq	-8(%rbp), %rdx
	movq	%rax, 152(%rdx)
	movq	-8(%rbp), %rax
	movq	%rax, %rdi
	call	_ZNKSt8__detail12_ScannerBase10_M_is_ecmaEv
	testb	%al, %al
	je	.L125
	movq	-8(%rbp), %rax
	movq	112(%rax), %rax
	jmp	.L126
.L125:
	movq	-8(%rbp), %rax
	movl	140(%rax), %eax
	movl	$32, %esi
	movl	%eax, %edi
	call	_ZNSt15regex_constantsanENS_18syntax_option_typeES0_
	testl	%eax, %eax
	je	.L127
	movq	-8(%rbp), %rax
	movq	120(%rax), %rax
	jmp	.L126
.L127:
	movq	-8(%rbp), %rax
	movl	140(%rax), %eax
	movl	$64, %esi
	movl	%eax, %edi
	call	_ZNSt15regex_constantsanENS_18syntax_option_typeES0_
	testl	%eax, %eax
	je	.L129
	movq	-8(%rbp), %rax
	movq	128(%rax), %rax
	jmp	.L126
.L129:
	movq	-8(%rbp), %rax
	movl	140(%rax), %eax
	movl	$256, %esi
	movl	%eax, %edi
	call	_ZNSt15regex_constantsanENS_18syntax_option_typeES0_
	testl	%eax, %eax
	jne	.L131
	movq	-8(%rbp), %rax
	movl	140(%rax), %eax
	movl	$512, %esi
	movl	%eax, %edi
	call	_ZNSt15regex_constantsanENS_18syntax_option_typeES0_
	testl	%eax, %eax
	jne	.L132
	movq	-8(%rbp), %rax
	movl	140(%rax), %eax
	movl	$128, %esi
	movl	%eax, %edi
	call	_ZNSt15regex_constantsanENS_18syntax_option_typeES0_
	testl	%eax, %eax
	je	.L133
	movq	-8(%rbp), %rax
	movq	128(%rax), %rax
	jmp	.L126
.L133:
	movl	$0, %eax
	jmp	.L126
.L132:
	leaq	.LC3(%rip), %rax
	jmp	.L126
.L131:
	leaq	.LC4(%rip), %rax
.L126:
	movq	-8(%rbp), %rdx
	movq	%rax, 160(%rdx)
	movq	-8(%rbp), %rax
	movb	$0, 168(%rax)
	nop
	leave
	.cfi_def_cfa 7, 8
	ret
	.cfi_endproc
.LFE4802:
	.size	_ZNSt8__detail12_ScannerBaseC2ENSt15regex_constants18syntax_option_typeE, .-_ZNSt8__detail12_ScannerBaseC2ENSt15regex_constants18syntax_option_typeE
	.weak	_ZNSt8__detail12_ScannerBaseC1ENSt15regex_constants18syntax_option_typeE
	.set	_ZNSt8__detail12_ScannerBaseC1ENSt15regex_constants18syntax_option_typeE,_ZNSt8__detail12_ScannerBaseC2ENSt15regex_constants18syntax_option_typeE
	.section	.text._ZNSt8__detail12_ScannerBase14_M_find_escapeEc,"axG",@progbits,_ZNSt8__detail12_ScannerBase14_M_find_escapeEc,comdat
	.align 2
	.weak	_ZNSt8__detail12_ScannerBase14_M_find_escapeEc
	.type	_ZNSt8__detail12_ScannerBase14_M_find_escapeEc, @function
_ZNSt8__detail12_ScannerBase14_M_find_escapeEc:
.LFB4804:
	.cfi_startproc
	endbr64
	pushq	%rbp
	.cfi_def_cfa_offset 16
	.cfi_offset 6, -16
	movq	%rsp, %rbp
	.cfi_def_cfa_register 6
	movq	%rdi, -24(%rbp)
	movl	%esi, %eax
	movb	%al, -28(%rbp)
	movq	-24(%rbp), %rax
	movq	152(%rax), %rax
	movq	%rax, -8(%rbp)
	jmp	.L138
.L141:
	movq	-8(%rbp), %rax
	movzbl	(%rax), %eax
	cmpb	%al, -28(%rbp)
	jne	.L139
	movq	-8(%rbp), %rax
	addq	$1, %rax
	jmp	.L140
.L139:
	addq	$2, -8(%rbp)
.L138:
	movq	-8(%rbp), %rax
	movzbl	(%rax), %eax
	testb	%al, %al
	jne	.L141
	movl	$0, %eax
.L140:
	popq	%rbp
	.cfi_def_cfa 7, 8
	ret
	.cfi_endproc
.LFE4804:
	.size	_ZNSt8__detail12_ScannerBase14_M_find_escapeEc, .-_ZNSt8__detail12_ScannerBase14_M_find_escapeEc
	.section	.text._ZNKSt8__detail12_ScannerBase10_M_is_ecmaEv,"axG",@progbits,_ZNKSt8__detail12_ScannerBase10_M_is_ecmaEv,comdat
	.align 2
	.weak	_ZNKSt8__detail12_ScannerBase10_M_is_ecmaEv
	.type	_ZNKSt8__detail12_ScannerBase10_M_is_ecmaEv, @function
_ZNKSt8__detail12_ScannerBase10_M_is_ecmaEv:
.LFB4805:
	.cfi_startproc
	endbr64
	pushq	%rbp
	.cfi_def_cfa_offset 16
	.cfi_offset 6, -16
	movq	%rsp, %rbp
	.cfi_def_cfa_register 6
	subq	$16, %rsp
	movq	%rdi, -8(%rbp)
	movq	-8(%rbp), %rax
	movl	140(%rax), %eax
	movl	$16, %esi
	movl	%eax, %edi
	call	_ZNSt15regex_constantsanENS_18syntax_option_typeES0_
	testl	%eax, %eax
	setne	%al
	leave
	.cfi_def_cfa 7, 8
	ret
	.cfi_endproc
.LFE4805:
	.size	_ZNKSt8__detail12_ScannerBase10_M_is_ecmaEv, .-_ZNKSt8__detail12_ScannerBase10_M_is_ecmaEv
	.section	.text._ZNKSt8__detail12_ScannerBase11_M_is_basicEv,"axG",@progbits,_ZNKSt8__detail12_ScannerBase11_M_is_basicEv,comdat
	.align 2
	.weak	_ZNKSt8__detail12_ScannerBase11_M_is_basicEv
	.type	_ZNKSt8__detail12_ScannerBase11_M_is_basicEv, @function
_ZNKSt8__detail12_ScannerBase11_M_is_basicEv:
.LFB4806:
	.cfi_startproc
	endbr64
	pushq	%rbp
	.cfi_def_cfa_offset 16
	.cfi_offset 6, -16
	movq	%rsp, %rbp
	.cfi_def_cfa_register 6
	subq	$16, %rsp
	movq	%rdi, -8(%rbp)
	movl	$256, %esi
	movl	$32, %edi
	call	_ZNSt15regex_constantsorENS_18syntax_option_typeES0_
	movl	%eax, %edx
	movq	-8(%rbp), %rax
	movl	140(%rax), %eax
	movl	%edx, %esi
	movl	%eax, %edi
	call	_ZNSt15regex_constantsanENS_18syntax_option_typeES0_
	testl	%eax, %eax
	setne	%al
	leave
	.cfi_def_cfa 7, 8
	ret
	.cfi_endproc
.LFE4806:
	.size	_ZNKSt8__detail12_ScannerBase11_M_is_basicEv, .-_ZNKSt8__detail12_ScannerBase11_M_is_basicEv
	.section	.text._ZNKSt8__detail12_ScannerBase9_M_is_awkEv,"axG",@progbits,_ZNKSt8__detail12_ScannerBase9_M_is_awkEv,comdat
	.align 2
	.weak	_ZNKSt8__detail12_ScannerBase9_M_is_awkEv
	.type	_ZNKSt8__detail12_ScannerBase9_M_is_awkEv, @function
_ZNKSt8__detail12_ScannerBase9_M_is_awkEv:
.LFB4809:
	.cfi_startproc
	endbr64
	pushq	%rbp
	.cfi_def_cfa_offset 16
	.cfi_offset 6, -16
	movq	%rsp, %rbp
	.cfi_def_cfa_register 6
	subq	$16, %rsp
	movq	%rdi, -8(%rbp)
	movq	-8(%rbp), %rax
	movl	140(%rax), %eax
	movl	$128, %esi
	movl	%eax, %edi
	call	_ZNSt15regex_constantsanENS_18syntax_option_typeES0_
	testl	%eax, %eax
	setne	%al
	leave
	.cfi_def_cfa 7, 8
	ret
	.cfi_endproc
.LFE4809:
	.size	_ZNKSt8__detail12_ScannerBase9_M_is_awkEv, .-_ZNKSt8__detail12_ScannerBase9_M_is_awkEv
	.section	.text._ZN6LexemeC2ENSt7__cxx1112basic_stringIcSt11char_traitsIcESaIcEEES5_,"axG",@progbits,_ZN6LexemeC5ENSt7__cxx1112basic_stringIcSt11char_traitsIcESaIcEEES5_,comdat
	.align 2
	.weak	_ZN6LexemeC2ENSt7__cxx1112basic_stringIcSt11char_traitsIcESaIcEEES5_
	.type	_ZN6LexemeC2ENSt7__cxx1112basic_stringIcSt11char_traitsIcESaIcEEES5_, @function
_ZN6LexemeC2ENSt7__cxx1112basic_stringIcSt11char_traitsIcESaIcEEES5_:
.LFB5110:
	.cfi_startproc
	.cfi_personality 0x9b,DW.ref.__gxx_personality_v0
	.cfi_lsda 0x1b,.LLSDA5110
	endbr64
	pushq	%rbp
	.cfi_def_cfa_offset 16
	.cfi_offset 6, -16
	movq	%rsp, %rbp
	.cfi_def_cfa_register 6
	pushq	%rbx
	subq	$40, %rsp
	.cfi_offset 3, -24
	movq	%rdi, -24(%rbp)
	movq	%rsi, -32(%rbp)
	movq	%rdx, -40(%rbp)
	movq	-24(%rbp), %rax
	movq	%rax, %rdi
	call	_ZNSt7__cxx1112basic_stringIcSt11char_traitsIcESaIcEEC1Ev@PLT
	movq	-24(%rbp), %rax
	addq	$32, %rax
	movq	%rax, %rdi
	call	_ZNSt7__cxx1111basic_regexIcNS_12regex_traitsIcEEEC1Ev
	movq	-24(%rbp), %rax
	movq	-32(%rbp), %rdx
	movq	%rdx, %rsi
	movq	%rax, %rdi
.LEHB2:
	call	_ZNSt7__cxx1112basic_stringIcSt11char_traitsIcESaIcEEaSERKS4_@PLT
	movq	-24(%rbp), %rax
	leaq	32(%rax), %rdx
	movq	-40(%rbp), %rax
	movq	%rax, %rsi
	movq	%rdx, %rdi
	call	_ZNSt7__cxx1111basic_regexIcNS_12regex_traitsIcEEEaSISt11char_traitsIcESaIcEEERS3_RKNS_12basic_stringIcT_T0_EE
.LEHE2:
	jmp	.L151
.L150:
	endbr64
	movq	%rax, %rbx
	movq	-24(%rbp), %rax
	addq	$32, %rax
	movq	%rax, %rdi
	call	_ZNSt7__cxx1111basic_regexIcNS_12regex_traitsIcEEED1Ev
	movq	-24(%rbp), %rax
	movq	%rax, %rdi
	call	_ZNSt7__cxx1112basic_stringIcSt11char_traitsIcESaIcEED1Ev@PLT
	movq	%rbx, %rax
	movq	%rax, %rdi
.LEHB3:
	call	_Unwind_Resume@PLT
.LEHE3:
.L151:
	movq	-8(%rbp), %rbx
	leave
	.cfi_def_cfa 7, 8
	ret
	.cfi_endproc
.LFE5110:
	.section	.gcc_except_table._ZN6LexemeC2ENSt7__cxx1112basic_stringIcSt11char_traitsIcESaIcEEES5_,"aG",@progbits,_ZN6LexemeC5ENSt7__cxx1112basic_stringIcSt11char_traitsIcESaIcEEES5_,comdat
.LLSDA5110:
	.byte	0xff
	.byte	0xff
	.byte	0x1
	.uleb128 .LLSDACSE5110-.LLSDACSB5110
.LLSDACSB5110:
	.uleb128 .LEHB2-.LFB5110
	.uleb128 .LEHE2-.LEHB2
	.uleb128 .L150-.LFB5110
	.uleb128 0
	.uleb128 .LEHB3-.LFB5110
	.uleb128 .LEHE3-.LEHB3
	.uleb128 0
	.uleb128 0
.LLSDACSE5110:
	.section	.text._ZN6LexemeC2ENSt7__cxx1112basic_stringIcSt11char_traitsIcESaIcEEES5_,"axG",@progbits,_ZN6LexemeC5ENSt7__cxx1112basic_stringIcSt11char_traitsIcESaIcEEES5_,comdat
	.size	_ZN6LexemeC2ENSt7__cxx1112basic_stringIcSt11char_traitsIcESaIcEEES5_, .-_ZN6LexemeC2ENSt7__cxx1112basic_stringIcSt11char_traitsIcESaIcEEES5_
	.weak	_ZN6LexemeC1ENSt7__cxx1112basic_stringIcSt11char_traitsIcESaIcEEES5_
	.set	_ZN6LexemeC1ENSt7__cxx1112basic_stringIcSt11char_traitsIcESaIcEEES5_,_ZN6LexemeC2ENSt7__cxx1112basic_stringIcSt11char_traitsIcESaIcEEES5_
	.section	.text._ZN6Lexeme4typeB5cxx11Ev,"axG",@progbits,_ZN6Lexeme4typeB5cxx11Ev,comdat
	.align 2
	.weak	_ZN6Lexeme4typeB5cxx11Ev
	.type	_ZN6Lexeme4typeB5cxx11Ev, @function
_ZN6Lexeme4typeB5cxx11Ev:
.LFB5112:
	.cfi_startproc
	endbr64
	pushq	%rbp
	.cfi_def_cfa_offset 16
	.cfi_offset 6, -16
	movq	%rsp, %rbp
	.cfi_def_cfa_register 6
	subq	$16, %rsp
	movq	%rdi, -8(%rbp)
	movq	%rsi, -16(%rbp)
	movq	-16(%rbp), %rdx
	movq	-8(%rbp), %rax
	movq	%rdx, %rsi
	movq	%rax, %rdi
	call	_ZNSt7__cxx1112basic_stringIcSt11char_traitsIcESaIcEEC1ERKS4_@PLT
	movq	-8(%rbp), %rax
	leave
	.cfi_def_cfa 7, 8
	ret
	.cfi_endproc
.LFE5112:
	.size	_ZN6Lexeme4typeB5cxx11Ev, .-_ZN6Lexeme4typeB5cxx11Ev
	.section	.text._ZNSt12__shared_ptrIKNSt8__detail4_NFAINSt7__cxx1112regex_traitsIcEEEELN9__gnu_cxx12_Lock_policyE2EEC2ERKS9_,"axG",@progbits,_ZNSt12__shared_ptrIKNSt8__detail4_NFAINSt7__cxx1112regex_traitsIcEEEELN9__gnu_cxx12_Lock_policyE2EEC5ERKS9_,comdat
	.align 2
	.weak	_ZNSt12__shared_ptrIKNSt8__detail4_NFAINSt7__cxx1112regex_traitsIcEEEELN9__gnu_cxx12_Lock_policyE2EEC2ERKS9_
	.type	_ZNSt12__shared_ptrIKNSt8__detail4_NFAINSt7__cxx1112regex_traitsIcEEEELN9__gnu_cxx12_Lock_policyE2EEC2ERKS9_, @function
_ZNSt12__shared_ptrIKNSt8__detail4_NFAINSt7__cxx1112regex_traitsIcEEEELN9__gnu_cxx12_Lock_policyE2EEC2ERKS9_:
.LFB5117:
	.cfi_startproc
	endbr64
	pushq	%rbp
	.cfi_def_cfa_offset 16
	.cfi_offset 6, -16
	movq	%rsp, %rbp
	.cfi_def_cfa_register 6
	subq	$16, %rsp
	movq	%rdi, -8(%rbp)
	movq	%rsi, -16(%rbp)
	movq	-16(%rbp), %rax
	movq	(%rax), %rdx
	movq	-8(%rbp), %rax
	movq	%rdx, (%rax)
	movq	-8(%rbp), %rax
	addq	$8, %rax
	movq	-16(%rbp), %rdx
	addq	$8, %rdx
	movq	%rdx, %rsi
	movq	%rax, %rdi
	call	_ZNSt14__shared_countILN9__gnu_cxx12_Lock_policyE2EEC1ERKS2_
	nop
	leave
	.cfi_def_cfa 7, 8
	ret
	.cfi_endproc
.LFE5117:
	.size	_ZNSt12__shared_ptrIKNSt8__detail4_NFAINSt7__cxx1112regex_traitsIcEEEELN9__gnu_cxx12_Lock_policyE2EEC2ERKS9_, .-_ZNSt12__shared_ptrIKNSt8__detail4_NFAINSt7__cxx1112regex_traitsIcEEEELN9__gnu_cxx12_Lock_policyE2EEC2ERKS9_
	.weak	_ZNSt12__shared_ptrIKNSt8__detail4_NFAINSt7__cxx1112regex_traitsIcEEEELN9__gnu_cxx12_Lock_policyE2EEC1ERKS9_
	.set	_ZNSt12__shared_ptrIKNSt8__detail4_NFAINSt7__cxx1112regex_traitsIcEEEELN9__gnu_cxx12_Lock_policyE2EEC1ERKS9_,_ZNSt12__shared_ptrIKNSt8__detail4_NFAINSt7__cxx1112regex_traitsIcEEEELN9__gnu_cxx12_Lock_policyE2EEC2ERKS9_
	.section	.text._ZNSt12__shared_ptrIKNSt8__detail4_NFAINSt7__cxx1112regex_traitsIcEEEELN9__gnu_cxx12_Lock_policyE2EED2Ev,"axG",@progbits,_ZNSt12__shared_ptrIKNSt8__detail4_NFAINSt7__cxx1112regex_traitsIcEEEELN9__gnu_cxx12_Lock_policyE2EED5Ev,comdat
	.align 2
	.weak	_ZNSt12__shared_ptrIKNSt8__detail4_NFAINSt7__cxx1112regex_traitsIcEEEELN9__gnu_cxx12_Lock_policyE2EED2Ev
	.type	_ZNSt12__shared_ptrIKNSt8__detail4_NFAINSt7__cxx1112regex_traitsIcEEEELN9__gnu_cxx12_Lock_policyE2EED2Ev, @function
_ZNSt12__shared_ptrIKNSt8__detail4_NFAINSt7__cxx1112regex_traitsIcEEEELN9__gnu_cxx12_Lock_policyE2EED2Ev:
.LFB5120:
	.cfi_startproc
	endbr64
	pushq	%rbp
	.cfi_def_cfa_offset 16
	.cfi_offset 6, -16
	movq	%rsp, %rbp
	.cfi_def_cfa_register 6
	subq	$16, %rsp
	movq	%rdi, -8(%rbp)
	movq	-8(%rbp), %rax
	addq	$8, %rax
	movq	%rax, %rdi
	call	_ZNSt14__shared_countILN9__gnu_cxx12_Lock_policyE2EED1Ev
	nop
	leave
	.cfi_def_cfa 7, 8
	ret
	.cfi_endproc
.LFE5120:
	.size	_ZNSt12__shared_ptrIKNSt8__detail4_NFAINSt7__cxx1112regex_traitsIcEEEELN9__gnu_cxx12_Lock_policyE2EED2Ev, .-_ZNSt12__shared_ptrIKNSt8__detail4_NFAINSt7__cxx1112regex_traitsIcEEEELN9__gnu_cxx12_Lock_policyE2EED2Ev
	.weak	_ZNSt12__shared_ptrIKNSt8__detail4_NFAINSt7__cxx1112regex_traitsIcEEEELN9__gnu_cxx12_Lock_policyE2EED1Ev
	.set	_ZNSt12__shared_ptrIKNSt8__detail4_NFAINSt7__cxx1112regex_traitsIcEEEELN9__gnu_cxx12_Lock_policyE2EED1Ev,_ZNSt12__shared_ptrIKNSt8__detail4_NFAINSt7__cxx1112regex_traitsIcEEEELN9__gnu_cxx12_Lock_policyE2EED2Ev
	.section	.text._ZNSt10shared_ptrIKNSt8__detail4_NFAINSt7__cxx1112regex_traitsIcEEEEEC2ERKS7_,"axG",@progbits,_ZNSt10shared_ptrIKNSt8__detail4_NFAINSt7__cxx1112regex_traitsIcEEEEEC5ERKS7_,comdat
	.align 2
	.weak	_ZNSt10shared_ptrIKNSt8__detail4_NFAINSt7__cxx1112regex_traitsIcEEEEEC2ERKS7_
	.type	_ZNSt10shared_ptrIKNSt8__detail4_NFAINSt7__cxx1112regex_traitsIcEEEEEC2ERKS7_, @function
_ZNSt10shared_ptrIKNSt8__detail4_NFAINSt7__cxx1112regex_traitsIcEEEEEC2ERKS7_:
.LFB5122:
	.cfi_startproc
	endbr64
	pushq	%rbp
	.cfi_def_cfa_offset 16
	.cfi_offset 6, -16
	movq	%rsp, %rbp
	.cfi_def_cfa_register 6
	subq	$16, %rsp
	movq	%rdi, -8(%rbp)
	movq	%rsi, -16(%rbp)
	movq	-8(%rbp), %rax
	movq	-16(%rbp), %rdx
	movq	%rdx, %rsi
	movq	%rax, %rdi
	call	_ZNSt12__shared_ptrIKNSt8__detail4_NFAINSt7__cxx1112regex_traitsIcEEEELN9__gnu_cxx12_Lock_policyE2EEC2ERKS9_
	nop
	leave
	.cfi_def_cfa 7, 8
	ret
	.cfi_endproc
.LFE5122:
	.size	_ZNSt10shared_ptrIKNSt8__detail4_NFAINSt7__cxx1112regex_traitsIcEEEEEC2ERKS7_, .-_ZNSt10shared_ptrIKNSt8__detail4_NFAINSt7__cxx1112regex_traitsIcEEEEEC2ERKS7_
	.weak	_ZNSt10shared_ptrIKNSt8__detail4_NFAINSt7__cxx1112regex_traitsIcEEEEEC1ERKS7_
	.set	_ZNSt10shared_ptrIKNSt8__detail4_NFAINSt7__cxx1112regex_traitsIcEEEEEC1ERKS7_,_ZNSt10shared_ptrIKNSt8__detail4_NFAINSt7__cxx1112regex_traitsIcEEEEEC2ERKS7_
	.section	.text._ZNSt10shared_ptrIKNSt8__detail4_NFAINSt7__cxx1112regex_traitsIcEEEEED2Ev,"axG",@progbits,_ZNSt10shared_ptrIKNSt8__detail4_NFAINSt7__cxx1112regex_traitsIcEEEEED5Ev,comdat
	.align 2
	.weak	_ZNSt10shared_ptrIKNSt8__detail4_NFAINSt7__cxx1112regex_traitsIcEEEEED2Ev
	.type	_ZNSt10shared_ptrIKNSt8__detail4_NFAINSt7__cxx1112regex_traitsIcEEEEED2Ev, @function
_ZNSt10shared_ptrIKNSt8__detail4_NFAINSt7__cxx1112regex_traitsIcEEEEED2Ev:
.LFB5125:
	.cfi_startproc
	endbr64
	pushq	%rbp
	.cfi_def_cfa_offset 16
	.cfi_offset 6, -16
	movq	%rsp, %rbp
	.cfi_def_cfa_register 6
	subq	$16, %rsp
	movq	%rdi, -8(%rbp)
	movq	-8(%rbp), %rax
	movq	%rax, %rdi
	call	_ZNSt12__shared_ptrIKNSt8__detail4_NFAINSt7__cxx1112regex_traitsIcEEEELN9__gnu_cxx12_Lock_policyE2EED2Ev
	nop
	leave
	.cfi_def_cfa 7, 8
	ret
	.cfi_endproc
.LFE5125:
	.size	_ZNSt10shared_ptrIKNSt8__detail4_NFAINSt7__cxx1112regex_traitsIcEEEEED2Ev, .-_ZNSt10shared_ptrIKNSt8__detail4_NFAINSt7__cxx1112regex_traitsIcEEEEED2Ev
	.weak	_ZNSt10shared_ptrIKNSt8__detail4_NFAINSt7__cxx1112regex_traitsIcEEEEED1Ev
	.set	_ZNSt10shared_ptrIKNSt8__detail4_NFAINSt7__cxx1112regex_traitsIcEEEEED1Ev,_ZNSt10shared_ptrIKNSt8__detail4_NFAINSt7__cxx1112regex_traitsIcEEEEED2Ev
	.section	.text._ZNSt7__cxx1111basic_regexIcNS_12regex_traitsIcEEEC2ERKS3_,"axG",@progbits,_ZNSt7__cxx1111basic_regexIcNS_12regex_traitsIcEEEC5ERKS3_,comdat
	.align 2
	.weak	_ZNSt7__cxx1111basic_regexIcNS_12regex_traitsIcEEEC2ERKS3_
	.type	_ZNSt7__cxx1111basic_regexIcNS_12regex_traitsIcEEEC2ERKS3_, @function
_ZNSt7__cxx1111basic_regexIcNS_12regex_traitsIcEEEC2ERKS3_:
.LFB5127:
	.cfi_startproc
	endbr64
	pushq	%rbp
	.cfi_def_cfa_offset 16
	.cfi_offset 6, -16
	movq	%rsp, %rbp
	.cfi_def_cfa_register 6
	subq	$16, %rsp
	movq	%rdi, -8(%rbp)
	movq	%rsi, -16(%rbp)
	movq	-16(%rbp), %rax
	movl	(%rax), %edx
	movq	-8(%rbp), %rax
	movl	%edx, (%rax)
	movq	-8(%rbp), %rax
	addq	$8, %rax
	movq	-16(%rbp), %rdx
	addq	$8, %rdx
	movq	%rdx, %rsi
	movq	%rax, %rdi
	call	_ZNSt6localeC1ERKS_@PLT
	movq	-8(%rbp), %rax
	addq	$16, %rax
	movq	-16(%rbp), %rdx
	addq	$16, %rdx
	movq	%rdx, %rsi
	movq	%rax, %rdi
	call	_ZNSt10shared_ptrIKNSt8__detail4_NFAINSt7__cxx1112regex_traitsIcEEEEEC1ERKS7_
	nop
	leave
	.cfi_def_cfa 7, 8
	ret
	.cfi_endproc
.LFE5127:
	.size	_ZNSt7__cxx1111basic_regexIcNS_12regex_traitsIcEEEC2ERKS3_, .-_ZNSt7__cxx1111basic_regexIcNS_12regex_traitsIcEEEC2ERKS3_
	.weak	_ZNSt7__cxx1111basic_regexIcNS_12regex_traitsIcEEEC1ERKS3_
	.set	_ZNSt7__cxx1111basic_regexIcNS_12regex_traitsIcEEEC1ERKS3_,_ZNSt7__cxx1111basic_regexIcNS_12regex_traitsIcEEEC2ERKS3_
	.section	.text._ZN6Lexeme5valueB5cxx11Ev,"axG",@progbits,_ZN6Lexeme5valueB5cxx11Ev,comdat
	.align 2
	.weak	_ZN6Lexeme5valueB5cxx11Ev
	.type	_ZN6Lexeme5valueB5cxx11Ev, @function
_ZN6Lexeme5valueB5cxx11Ev:
.LFB5113:
	.cfi_startproc
	endbr64
	pushq	%rbp
	.cfi_def_cfa_offset 16
	.cfi_offset 6, -16
	movq	%rsp, %rbp
	.cfi_def_cfa_register 6
	subq	$16, %rsp
	movq	%rdi, -8(%rbp)
	movq	%rsi, -16(%rbp)
	movq	-16(%rbp), %rax
	leaq	32(%rax), %rdx
	movq	-8(%rbp), %rax
	movq	%rdx, %rsi
	movq	%rax, %rdi
	call	_ZNSt7__cxx1111basic_regexIcNS_12regex_traitsIcEEEC1ERKS3_
	movq	-8(%rbp), %rax
	leave
	.cfi_def_cfa 7, 8
	ret
	.cfi_endproc
.LFE5113:
	.size	_ZN6Lexeme5valueB5cxx11Ev, .-_ZN6Lexeme5valueB5cxx11Ev
	.section	.text._ZNSt12_Vector_baseI5TokenSaIS0_EE12_Vector_implD2Ev,"axG",@progbits,_ZNSt12_Vector_baseI5TokenSaIS0_EE12_Vector_implD5Ev,comdat
	.align 2
	.weak	_ZNSt12_Vector_baseI5TokenSaIS0_EE12_Vector_implD2Ev
	.type	_ZNSt12_Vector_baseI5TokenSaIS0_EE12_Vector_implD2Ev, @function
_ZNSt12_Vector_baseI5TokenSaIS0_EE12_Vector_implD2Ev:
.LFB5134:
	.cfi_startproc
	endbr64
	pushq	%rbp
	.cfi_def_cfa_offset 16
	.cfi_offset 6, -16
	movq	%rsp, %rbp
	.cfi_def_cfa_register 6
	subq	$16, %rsp
	movq	%rdi, -8(%rbp)
	movq	-8(%rbp), %rax
	movq	%rax, %rdi
	call	_ZNSaI5TokenED2Ev
	nop
	leave
	.cfi_def_cfa 7, 8
	ret
	.cfi_endproc
.LFE5134:
	.size	_ZNSt12_Vector_baseI5TokenSaIS0_EE12_Vector_implD2Ev, .-_ZNSt12_Vector_baseI5TokenSaIS0_EE12_Vector_implD2Ev
	.weak	_ZNSt12_Vector_baseI5TokenSaIS0_EE12_Vector_implD1Ev
	.set	_ZNSt12_Vector_baseI5TokenSaIS0_EE12_Vector_implD1Ev,_ZNSt12_Vector_baseI5TokenSaIS0_EE12_Vector_implD2Ev
	.section	.text._ZNSt12_Vector_baseI5TokenSaIS0_EEC2Ev,"axG",@progbits,_ZNSt12_Vector_baseI5TokenSaIS0_EEC5Ev,comdat
	.align 2
	.weak	_ZNSt12_Vector_baseI5TokenSaIS0_EEC2Ev
	.type	_ZNSt12_Vector_baseI5TokenSaIS0_EEC2Ev, @function
_ZNSt12_Vector_baseI5TokenSaIS0_EEC2Ev:
.LFB5136:
	.cfi_startproc
	endbr64
	pushq	%rbp
	.cfi_def_cfa_offset 16
	.cfi_offset 6, -16
	movq	%rsp, %rbp
	.cfi_def_cfa_register 6
	subq	$16, %rsp
	movq	%rdi, -8(%rbp)
	movq	-8(%rbp), %rax
	movq	%rax, %rdi
	call	_ZNSt12_Vector_baseI5TokenSaIS0_EE12_Vector_implC1Ev
	nop
	leave
	.cfi_def_cfa 7, 8
	ret
	.cfi_endproc
.LFE5136:
	.size	_ZNSt12_Vector_baseI5TokenSaIS0_EEC2Ev, .-_ZNSt12_Vector_baseI5TokenSaIS0_EEC2Ev
	.weak	_ZNSt12_Vector_baseI5TokenSaIS0_EEC1Ev
	.set	_ZNSt12_Vector_baseI5TokenSaIS0_EEC1Ev,_ZNSt12_Vector_baseI5TokenSaIS0_EEC2Ev
	.section	.text._ZNSt6vectorI5TokenSaIS0_EEC2Ev,"axG",@progbits,_ZNSt6vectorI5TokenSaIS0_EEC5Ev,comdat
	.align 2
	.weak	_ZNSt6vectorI5TokenSaIS0_EEC2Ev
	.type	_ZNSt6vectorI5TokenSaIS0_EEC2Ev, @function
_ZNSt6vectorI5TokenSaIS0_EEC2Ev:
.LFB5138:
	.cfi_startproc
	endbr64
	pushq	%rbp
	.cfi_def_cfa_offset 16
	.cfi_offset 6, -16
	movq	%rsp, %rbp
	.cfi_def_cfa_register 6
	subq	$16, %rsp
	movq	%rdi, -8(%rbp)
	movq	-8(%rbp), %rax
	movq	%rax, %rdi
	call	_ZNSt12_Vector_baseI5TokenSaIS0_EEC2Ev
	nop
	leave
	.cfi_def_cfa 7, 8
	ret
	.cfi_endproc
.LFE5138:
	.size	_ZNSt6vectorI5TokenSaIS0_EEC2Ev, .-_ZNSt6vectorI5TokenSaIS0_EEC2Ev
	.weak	_ZNSt6vectorI5TokenSaIS0_EEC1Ev
	.set	_ZNSt6vectorI5TokenSaIS0_EEC1Ev,_ZNSt6vectorI5TokenSaIS0_EEC2Ev
	.section	.text._ZN9__gnu_cxx14__alloc_traitsISaI5TokenES1_E15_S_always_equalEv,"axG",@progbits,_ZN9__gnu_cxx14__alloc_traitsISaI5TokenES1_E15_S_always_equalEv,comdat
	.weak	_ZN9__gnu_cxx14__alloc_traitsISaI5TokenES1_E15_S_always_equalEv
	.type	_ZN9__gnu_cxx14__alloc_traitsISaI5TokenES1_E15_S_always_equalEv, @function
_ZN9__gnu_cxx14__alloc_traitsISaI5TokenES1_E15_S_always_equalEv:
.LFB5142:
	.cfi_startproc
	endbr64
	pushq	%rbp
	.cfi_def_cfa_offset 16
	.cfi_offset 6, -16
	movq	%rsp, %rbp
	.cfi_def_cfa_register 6
	movl	$1, %eax
	popq	%rbp
	.cfi_def_cfa 7, 8
	ret
	.cfi_endproc
.LFE5142:
	.size	_ZN9__gnu_cxx14__alloc_traitsISaI5TokenES1_E15_S_always_equalEv, .-_ZN9__gnu_cxx14__alloc_traitsISaI5TokenES1_E15_S_always_equalEv
	.section	.rodata
.LC5:
	.string	""
	.section	.text._ZN5TokenC2Ev,"axG",@progbits,_ZN5TokenC5Ev,comdat
	.align 2
	.weak	_ZN5TokenC2Ev
	.type	_ZN5TokenC2Ev, @function
_ZN5TokenC2Ev:
.LFB5143:
	.cfi_startproc
	.cfi_personality 0x9b,DW.ref.__gxx_personality_v0
	.cfi_lsda 0x1b,.LLSDA5143
	endbr64
	pushq	%rbp
	.cfi_def_cfa_offset 16
	.cfi_offset 6, -16
	movq	%rsp, %rbp
	.cfi_def_cfa_register 6
	pushq	%rbx
	subq	$56, %rsp
	.cfi_offset 3, -24
	movq	%rdi, -56(%rbp)
	movq	%fs:40, %rax
	movq	%rax, -24(%rbp)
	xorl	%eax, %eax
	movq	-56(%rbp), %rax
	movq	%rax, %rdi
	call	_ZNSt7__cxx1112basic_stringIcSt11char_traitsIcESaIcEEC1Ev@PLT
	movq	-56(%rbp), %rax
	addq	$32, %rax
	movq	%rax, %rdi
	call	_ZNSt7__cxx1112basic_stringIcSt11char_traitsIcESaIcEEC1Ev@PLT
	movq	-56(%rbp), %rax
	addq	$72, %rax
	movq	%rax, %rdi
	call	_ZNSt6vectorI5TokenSaIS0_EEC1Ev
	movq	-56(%rbp), %rax
	leaq	.LC5(%rip), %rdx
	movq	%rdx, %rsi
	movq	%rax, %rdi
.LEHB4:
	call	_ZNSt7__cxx1112basic_stringIcSt11char_traitsIcESaIcEEaSEPKc@PLT
	movq	-56(%rbp), %rax
	addq	$32, %rax
	leaq	.LC5(%rip), %rdx
	movq	%rdx, %rsi
	movq	%rax, %rdi
	call	_ZNSt7__cxx1112basic_stringIcSt11char_traitsIcESaIcEEaSEPKc@PLT
.LEHE4:
	movq	-56(%rbp), %rax
	movl	$0, 64(%rax)
	movq	-56(%rbp), %rax
	movl	$0, 68(%rax)
	movq	$0, -48(%rbp)
	movq	$0, -40(%rbp)
	movq	$0, -32(%rbp)
	leaq	-48(%rbp), %rax
	movq	%rax, %rdi
	call	_ZNSt6vectorI5TokenSaIS0_EEC1Ev
	movq	-56(%rbp), %rax
	leaq	72(%rax), %rdx
	leaq	-48(%rbp), %rax
	movq	%rax, %rsi
	movq	%rdx, %rdi
	call	_ZNSt6vectorI5TokenSaIS0_EEaSEOS2_
	leaq	-48(%rbp), %rax
	movq	%rax, %rdi
	call	_ZNSt6vectorI5TokenSaIS0_EED1Ev
	nop
	movq	-24(%rbp), %rax
	subq	%fs:40, %rax
	je	.L168
	jmp	.L170
.L169:
	endbr64
	movq	%rax, %rbx
	movq	-56(%rbp), %rax
	addq	$72, %rax
	movq	%rax, %rdi
	call	_ZNSt6vectorI5TokenSaIS0_EED1Ev
	movq	-56(%rbp), %rax
	addq	$32, %rax
	movq	%rax, %rdi
	call	_ZNSt7__cxx1112basic_stringIcSt11char_traitsIcESaIcEED1Ev@PLT
	movq	-56(%rbp), %rax
	movq	%rax, %rdi
	call	_ZNSt7__cxx1112basic_stringIcSt11char_traitsIcESaIcEED1Ev@PLT
	movq	%rbx, %rax
	movq	%rax, %rdi
.LEHB5:
	call	_Unwind_Resume@PLT
.LEHE5:
.L170:
	call	__stack_chk_fail@PLT
.L168:
	movq	-8(%rbp), %rbx
	leave
	.cfi_def_cfa 7, 8
	ret
	.cfi_endproc
.LFE5143:
	.section	.gcc_except_table._ZN5TokenC2Ev,"aG",@progbits,_ZN5TokenC5Ev,comdat
.LLSDA5143:
	.byte	0xff
	.byte	0xff
	.byte	0x1
	.uleb128 .LLSDACSE5143-.LLSDACSB5143
.LLSDACSB5143:
	.uleb128 .LEHB4-.LFB5143
	.uleb128 .LEHE4-.LEHB4
	.uleb128 .L169-.LFB5143
	.uleb128 0
	.uleb128 .LEHB5-.LFB5143
	.uleb128 .LEHE5-.LEHB5
	.uleb128 0
	.uleb128 0
.LLSDACSE5143:
	.section	.text._ZN5TokenC2Ev,"axG",@progbits,_ZN5TokenC5Ev,comdat
	.size	_ZN5TokenC2Ev, .-_ZN5TokenC2Ev
	.weak	_ZN5TokenC1Ev
	.set	_ZN5TokenC1Ev,_ZN5TokenC2Ev
	.section	.text._ZN5TokenC2ENSt7__cxx1112basic_stringIcSt11char_traitsIcESaIcEEE,"axG",@progbits,_ZN5TokenC5ENSt7__cxx1112basic_stringIcSt11char_traitsIcESaIcEEE,comdat
	.align 2
	.weak	_ZN5TokenC2ENSt7__cxx1112basic_stringIcSt11char_traitsIcESaIcEEE
	.type	_ZN5TokenC2ENSt7__cxx1112basic_stringIcSt11char_traitsIcESaIcEEE, @function
_ZN5TokenC2ENSt7__cxx1112basic_stringIcSt11char_traitsIcESaIcEEE:
.LFB5146:
	.cfi_startproc
	.cfi_personality 0x9b,DW.ref.__gxx_personality_v0
	.cfi_lsda 0x1b,.LLSDA5146
	endbr64
	pushq	%rbp
	.cfi_def_cfa_offset 16
	.cfi_offset 6, -16
	movq	%rsp, %rbp
	.cfi_def_cfa_register 6
	pushq	%rbx
	subq	$56, %rsp
	.cfi_offset 3, -24
	movq	%rdi, -56(%rbp)
	movq	%rsi, -64(%rbp)
	movq	%fs:40, %rax
	movq	%rax, -24(%rbp)
	xorl	%eax, %eax
	movq	-56(%rbp), %rax
	movq	%rax, %rdi
	call	_ZNSt7__cxx1112basic_stringIcSt11char_traitsIcESaIcEEC1Ev@PLT
	movq	-56(%rbp), %rax
	addq	$32, %rax
	movq	%rax, %rdi
	call	_ZNSt7__cxx1112basic_stringIcSt11char_traitsIcESaIcEEC1Ev@PLT
	movq	-56(%rbp), %rax
	addq	$72, %rax
	movq	%rax, %rdi
	call	_ZNSt6vectorI5TokenSaIS0_EEC1Ev
	movq	-56(%rbp), %rax
	movq	-64(%rbp), %rdx
	movq	%rdx, %rsi
	movq	%rax, %rdi
.LEHB6:
	call	_ZNSt7__cxx1112basic_stringIcSt11char_traitsIcESaIcEEaSERKS4_@PLT
	movq	-56(%rbp), %rax
	addq	$32, %rax
	leaq	.LC5(%rip), %rdx
	movq	%rdx, %rsi
	movq	%rax, %rdi
	call	_ZNSt7__cxx1112basic_stringIcSt11char_traitsIcESaIcEEaSEPKc@PLT
.LEHE6:
	movq	-56(%rbp), %rax
	movl	$0, 64(%rax)
	movq	-56(%rbp), %rax
	movl	$0, 68(%rax)
	movq	$0, -48(%rbp)
	movq	$0, -40(%rbp)
	movq	$0, -32(%rbp)
	leaq	-48(%rbp), %rax
	movq	%rax, %rdi
	call	_ZNSt6vectorI5TokenSaIS0_EEC1Ev
	movq	-56(%rbp), %rax
	leaq	72(%rax), %rdx
	leaq	-48(%rbp), %rax
	movq	%rax, %rsi
	movq	%rdx, %rdi
	call	_ZNSt6vectorI5TokenSaIS0_EEaSEOS2_
	leaq	-48(%rbp), %rax
	movq	%rax, %rdi
	call	_ZNSt6vectorI5TokenSaIS0_EED1Ev
	nop
	movq	-24(%rbp), %rax
	subq	%fs:40, %rax
	je	.L173
	jmp	.L175
.L174:
	endbr64
	movq	%rax, %rbx
	movq	-56(%rbp), %rax
	addq	$72, %rax
	movq	%rax, %rdi
	call	_ZNSt6vectorI5TokenSaIS0_EED1Ev
	movq	-56(%rbp), %rax
	addq	$32, %rax
	movq	%rax, %rdi
	call	_ZNSt7__cxx1112basic_stringIcSt11char_traitsIcESaIcEED1Ev@PLT
	movq	-56(%rbp), %rax
	movq	%rax, %rdi
	call	_ZNSt7__cxx1112basic_stringIcSt11char_traitsIcESaIcEED1Ev@PLT
	movq	%rbx, %rax
	movq	%rax, %rdi
.LEHB7:
	call	_Unwind_Resume@PLT
.LEHE7:
.L175:
	call	__stack_chk_fail@PLT
.L173:
	movq	-8(%rbp), %rbx
	leave
	.cfi_def_cfa 7, 8
	ret
	.cfi_endproc
.LFE5146:
	.section	.gcc_except_table._ZN5TokenC2ENSt7__cxx1112basic_stringIcSt11char_traitsIcESaIcEEE,"aG",@progbits,_ZN5TokenC5ENSt7__cxx1112basic_stringIcSt11char_traitsIcESaIcEEE,comdat
.LLSDA5146:
	.byte	0xff
	.byte	0xff
	.byte	0x1
	.uleb128 .LLSDACSE5146-.LLSDACSB5146
.LLSDACSB5146:
	.uleb128 .LEHB6-.LFB5146
	.uleb128 .LEHE6-.LEHB6
	.uleb128 .L174-.LFB5146
	.uleb128 0
	.uleb128 .LEHB7-.LFB5146
	.uleb128 .LEHE7-.LEHB7
	.uleb128 0
	.uleb128 0
.LLSDACSE5146:
	.section	.text._ZN5TokenC2ENSt7__cxx1112basic_stringIcSt11char_traitsIcESaIcEEE,"axG",@progbits,_ZN5TokenC5ENSt7__cxx1112basic_stringIcSt11char_traitsIcESaIcEEE,comdat
	.size	_ZN5TokenC2ENSt7__cxx1112basic_stringIcSt11char_traitsIcESaIcEEE, .-_ZN5TokenC2ENSt7__cxx1112basic_stringIcSt11char_traitsIcESaIcEEE
	.weak	_ZN5TokenC1ENSt7__cxx1112basic_stringIcSt11char_traitsIcESaIcEEE
	.set	_ZN5TokenC1ENSt7__cxx1112basic_stringIcSt11char_traitsIcESaIcEEE,_ZN5TokenC2ENSt7__cxx1112basic_stringIcSt11char_traitsIcESaIcEEE
	.section	.text._ZN5TokenC2ENSt7__cxx1112basic_stringIcSt11char_traitsIcESaIcEEES5_ii,"axG",@progbits,_ZN5TokenC5ENSt7__cxx1112basic_stringIcSt11char_traitsIcESaIcEEES5_ii,comdat
	.align 2
	.weak	_ZN5TokenC2ENSt7__cxx1112basic_stringIcSt11char_traitsIcESaIcEEES5_ii
	.type	_ZN5TokenC2ENSt7__cxx1112basic_stringIcSt11char_traitsIcESaIcEEES5_ii, @function
_ZN5TokenC2ENSt7__cxx1112basic_stringIcSt11char_traitsIcESaIcEEES5_ii:
.LFB5152:
	.cfi_startproc
	.cfi_personality 0x9b,DW.ref.__gxx_personality_v0
	.cfi_lsda 0x1b,.LLSDA5152
	endbr64
	pushq	%rbp
	.cfi_def_cfa_offset 16
	.cfi_offset 6, -16
	movq	%rsp, %rbp
	.cfi_def_cfa_register 6
	pushq	%rbx
	subq	$72, %rsp
	.cfi_offset 3, -24
	movq	%rdi, -56(%rbp)
	movq	%rsi, -64(%rbp)
	movq	%rdx, -72(%rbp)
	movl	%ecx, -76(%rbp)
	movl	%r8d, -80(%rbp)
	movq	%fs:40, %rax
	movq	%rax, -24(%rbp)
	xorl	%eax, %eax
	movq	-56(%rbp), %rax
	movq	%rax, %rdi
	call	_ZNSt7__cxx1112basic_stringIcSt11char_traitsIcESaIcEEC1Ev@PLT
	movq	-56(%rbp), %rax
	addq	$32, %rax
	movq	%rax, %rdi
	call	_ZNSt7__cxx1112basic_stringIcSt11char_traitsIcESaIcEEC1Ev@PLT
	movq	-56(%rbp), %rax
	addq	$72, %rax
	movq	%rax, %rdi
	call	_ZNSt6vectorI5TokenSaIS0_EEC1Ev
	movq	-56(%rbp), %rax
	movq	-64(%rbp), %rdx
	movq	%rdx, %rsi
	movq	%rax, %rdi
.LEHB8:
	call	_ZNSt7__cxx1112basic_stringIcSt11char_traitsIcESaIcEEaSERKS4_@PLT
	movq	-56(%rbp), %rax
	leaq	32(%rax), %rdx
	movq	-72(%rbp), %rax
	movq	%rax, %rsi
	movq	%rdx, %rdi
	call	_ZNSt7__cxx1112basic_stringIcSt11char_traitsIcESaIcEEaSERKS4_@PLT
.LEHE8:
	movq	-56(%rbp), %rax
	movl	-76(%rbp), %edx
	movl	%edx, 64(%rax)
	movq	-56(%rbp), %rax
	movl	-80(%rbp), %edx
	movl	%edx, 68(%rax)
	movq	$0, -48(%rbp)
	movq	$0, -40(%rbp)
	movq	$0, -32(%rbp)
	leaq	-48(%rbp), %rax
	movq	%rax, %rdi
	call	_ZNSt6vectorI5TokenSaIS0_EEC1Ev
	movq	-56(%rbp), %rax
	leaq	72(%rax), %rdx
	leaq	-48(%rbp), %rax
	movq	%rax, %rsi
	movq	%rdx, %rdi
	call	_ZNSt6vectorI5TokenSaIS0_EEaSEOS2_
	leaq	-48(%rbp), %rax
	movq	%rax, %rdi
	call	_ZNSt6vectorI5TokenSaIS0_EED1Ev
	nop
	movq	-24(%rbp), %rax
	subq	%fs:40, %rax
	je	.L178
	jmp	.L180
.L179:
	endbr64
	movq	%rax, %rbx
	movq	-56(%rbp), %rax
	addq	$72, %rax
	movq	%rax, %rdi
	call	_ZNSt6vectorI5TokenSaIS0_EED1Ev
	movq	-56(%rbp), %rax
	addq	$32, %rax
	movq	%rax, %rdi
	call	_ZNSt7__cxx1112basic_stringIcSt11char_traitsIcESaIcEED1Ev@PLT
	movq	-56(%rbp), %rax
	movq	%rax, %rdi
	call	_ZNSt7__cxx1112basic_stringIcSt11char_traitsIcESaIcEED1Ev@PLT
	movq	%rbx, %rax
	movq	%rax, %rdi
.LEHB9:
	call	_Unwind_Resume@PLT
.LEHE9:
.L180:
	call	__stack_chk_fail@PLT
.L178:
	movq	-8(%rbp), %rbx
	leave
	.cfi_def_cfa 7, 8
	ret
	.cfi_endproc
.LFE5152:
	.section	.gcc_except_table._ZN5TokenC2ENSt7__cxx1112basic_stringIcSt11char_traitsIcESaIcEEES5_ii,"aG",@progbits,_ZN5TokenC5ENSt7__cxx1112basic_stringIcSt11char_traitsIcESaIcEEES5_ii,comdat
.LLSDA5152:
	.byte	0xff
	.byte	0xff
	.byte	0x1
	.uleb128 .LLSDACSE5152-.LLSDACSB5152
.LLSDACSB5152:
	.uleb128 .LEHB8-.LFB5152
	.uleb128 .LEHE8-.LEHB8
	.uleb128 .L179-.LFB5152
	.uleb128 0
	.uleb128 .LEHB9-.LFB5152
	.uleb128 .LEHE9-.LEHB9
	.uleb128 0
	.uleb128 0
.LLSDACSE5152:
	.section	.text._ZN5TokenC2ENSt7__cxx1112basic_stringIcSt11char_traitsIcESaIcEEES5_ii,"axG",@progbits,_ZN5TokenC5ENSt7__cxx1112basic_stringIcSt11char_traitsIcESaIcEEES5_ii,comdat
	.size	_ZN5TokenC2ENSt7__cxx1112basic_stringIcSt11char_traitsIcESaIcEEES5_ii, .-_ZN5TokenC2ENSt7__cxx1112basic_stringIcSt11char_traitsIcESaIcEEES5_ii
	.weak	_ZN5TokenC1ENSt7__cxx1112basic_stringIcSt11char_traitsIcESaIcEEES5_ii
	.set	_ZN5TokenC1ENSt7__cxx1112basic_stringIcSt11char_traitsIcESaIcEEES5_ii,_ZN5TokenC2ENSt7__cxx1112basic_stringIcSt11char_traitsIcESaIcEEES5_ii
	.section	.text._ZN5Token4pushES_,"axG",@progbits,_ZN5Token4pushES_,comdat
	.align 2
	.weak	_ZN5Token4pushES_
	.type	_ZN5Token4pushES_, @function
_ZN5Token4pushES_:
.LFB5154:
	.cfi_startproc
	endbr64
	pushq	%rbp
	.cfi_def_cfa_offset 16
	.cfi_offset 6, -16
	movq	%rsp, %rbp
	.cfi_def_cfa_register 6
	subq	$16, %rsp
	movq	%rdi, -8(%rbp)
	movq	%rsi, -16(%rbp)
	movq	-8(%rbp), %rax
	addq	$72, %rax
	movq	%rax, %rdi
	call	_ZNKSt6vectorI5TokenSaIS0_EE4sizeEv
	testq	%rax, %rax
	sete	%al
	testb	%al, %al
	je	.L182
	movq	-16(%rbp), %rax
	movq	%rax, %rdi
	call	_ZN5Token4lineEv
	movq	-8(%rbp), %rdx
	movl	%eax, 64(%rdx)
	movq	-16(%rbp), %rax
	movq	%rax, %rdi
	call	_ZN5Token6columnEv
	movq	-8(%rbp), %rdx
	movl	%eax, 68(%rdx)
.L182:
	movq	-8(%rbp), %rax
	leaq	72(%rax), %rdx
	movq	-16(%rbp), %rax
	movq	%rax, %rsi
	movq	%rdx, %rdi
	call	_ZNSt6vectorI5TokenSaIS0_EE9push_backERKS0_
	nop
	leave
	.cfi_def_cfa 7, 8
	ret
	.cfi_endproc
.LFE5154:
	.size	_ZN5Token4pushES_, .-_ZN5Token4pushES_
	.section	.text._ZN5TokenC2ERKS_,"axG",@progbits,_ZN5TokenC5ERKS_,comdat
	.align 2
	.weak	_ZN5TokenC2ERKS_
	.type	_ZN5TokenC2ERKS_, @function
_ZN5TokenC2ERKS_:
.LFB5157:
	.cfi_startproc
	.cfi_personality 0x9b,DW.ref.__gxx_personality_v0
	.cfi_lsda 0x1b,.LLSDA5157
	endbr64
	pushq	%rbp
	.cfi_def_cfa_offset 16
	.cfi_offset 6, -16
	movq	%rsp, %rbp
	.cfi_def_cfa_register 6
	pushq	%rbx
	subq	$24, %rsp
	.cfi_offset 3, -24
	movq	%rdi, -24(%rbp)
	movq	%rsi, -32(%rbp)
	movq	-24(%rbp), %rax
	movq	-32(%rbp), %rdx
	movq	%rdx, %rsi
	movq	%rax, %rdi
.LEHB10:
	call	_ZNSt7__cxx1112basic_stringIcSt11char_traitsIcESaIcEEC1ERKS4_@PLT
.LEHE10:
	movq	-24(%rbp), %rax
	addq	$32, %rax
	movq	-32(%rbp), %rdx
	addq	$32, %rdx
	movq	%rdx, %rsi
	movq	%rax, %rdi
.LEHB11:
	call	_ZNSt7__cxx1112basic_stringIcSt11char_traitsIcESaIcEEC1ERKS4_@PLT
.LEHE11:
	movq	-32(%rbp), %rax
	movl	64(%rax), %edx
	movq	-24(%rbp), %rax
	movl	%edx, 64(%rax)
	movq	-32(%rbp), %rax
	movl	68(%rax), %edx
	movq	-24(%rbp), %rax
	movl	%edx, 68(%rax)
	movq	-24(%rbp), %rax
	addq	$72, %rax
	movq	-32(%rbp), %rdx
	addq	$72, %rdx
	movq	%rdx, %rsi
	movq	%rax, %rdi
.LEHB12:
	call	_ZNSt6vectorI5TokenSaIS0_EEC1ERKS2_
.LEHE12:
	jmp	.L188
.L187:
	endbr64
	movq	%rax, %rbx
	movq	-24(%rbp), %rax
	addq	$32, %rax
	movq	%rax, %rdi
	call	_ZNSt7__cxx1112basic_stringIcSt11char_traitsIcESaIcEED1Ev@PLT
	jmp	.L185
.L186:
	endbr64
	movq	%rax, %rbx
.L185:
	movq	-24(%rbp), %rax
	movq	%rax, %rdi
	call	_ZNSt7__cxx1112basic_stringIcSt11char_traitsIcESaIcEED1Ev@PLT
	movq	%rbx, %rax
	movq	%rax, %rdi
.LEHB13:
	call	_Unwind_Resume@PLT
.LEHE13:
.L188:
	movq	-8(%rbp), %rbx
	leave
	.cfi_def_cfa 7, 8
	ret
	.cfi_endproc
.LFE5157:
	.section	.gcc_except_table._ZN5TokenC2ERKS_,"aG",@progbits,_ZN5TokenC5ERKS_,comdat
.LLSDA5157:
	.byte	0xff
	.byte	0xff
	.byte	0x1
	.uleb128 .LLSDACSE5157-.LLSDACSB5157
.LLSDACSB5157:
	.uleb128 .LEHB10-.LFB5157
	.uleb128 .LEHE10-.LEHB10
	.uleb128 0
	.uleb128 0
	.uleb128 .LEHB11-.LFB5157
	.uleb128 .LEHE11-.LEHB11
	.uleb128 .L186-.LFB5157
	.uleb128 0
	.uleb128 .LEHB12-.LFB5157
	.uleb128 .LEHE12-.LEHB12
	.uleb128 .L187-.LFB5157
	.uleb128 0
	.uleb128 .LEHB13-.LFB5157
	.uleb128 .LEHE13-.LEHB13
	.uleb128 0
	.uleb128 0
.LLSDACSE5157:
	.section	.text._ZN5TokenC2ERKS_,"axG",@progbits,_ZN5TokenC5ERKS_,comdat
	.size	_ZN5TokenC2ERKS_, .-_ZN5TokenC2ERKS_
	.weak	_ZN5TokenC1ERKS_
	.set	_ZN5TokenC1ERKS_,_ZN5TokenC2ERKS_
	.section	.text._ZN5TokenD2Ev,"axG",@progbits,_ZN5TokenD5Ev,comdat
	.align 2
	.weak	_ZN5TokenD2Ev
	.type	_ZN5TokenD2Ev, @function
_ZN5TokenD2Ev:
.LFB5160:
	.cfi_startproc
	endbr64
	pushq	%rbp
	.cfi_def_cfa_offset 16
	.cfi_offset 6, -16
	movq	%rsp, %rbp
	.cfi_def_cfa_register 6
	subq	$16, %rsp
	movq	%rdi, -8(%rbp)
	movq	-8(%rbp), %rax
	addq	$72, %rax
	movq	%rax, %rdi
	call	_ZNSt6vectorI5TokenSaIS0_EED1Ev
	movq	-8(%rbp), %rax
	addq	$32, %rax
	movq	%rax, %rdi
	call	_ZNSt7__cxx1112basic_stringIcSt11char_traitsIcESaIcEED1Ev@PLT
	movq	-8(%rbp), %rax
	movq	%rax, %rdi
	call	_ZNSt7__cxx1112basic_stringIcSt11char_traitsIcESaIcEED1Ev@PLT
	nop
	leave
	.cfi_def_cfa 7, 8
	ret
	.cfi_endproc
.LFE5160:
	.size	_ZN5TokenD2Ev, .-_ZN5TokenD2Ev
	.weak	_ZN5TokenD1Ev
	.set	_ZN5TokenD1Ev,_ZN5TokenD2Ev
	.section	.text._ZN5Token4pushERSt6vectorIS_SaIS_EE,"axG",@progbits,_ZN5Token4pushERSt6vectorIS_SaIS_EE,comdat
	.align 2
	.weak	_ZN5Token4pushERSt6vectorIS_SaIS_EE
	.type	_ZN5Token4pushERSt6vectorIS_SaIS_EE, @function
_ZN5Token4pushERSt6vectorIS_SaIS_EE:
.LFB5155:
	.cfi_startproc
	.cfi_personality 0x9b,DW.ref.__gxx_personality_v0
	.cfi_lsda 0x1b,.LLSDA5155
	endbr64
	pushq	%rbp
	.cfi_def_cfa_offset 16
	.cfi_offset 6, -16
	movq	%rsp, %rbp
	.cfi_def_cfa_register 6
	pushq	%rbx
	subq	$152, %rsp
	.cfi_offset 3, -24
	movq	%rdi, -152(%rbp)
	movq	%rsi, -160(%rbp)
	movq	%fs:40, %rax
	movq	%rax, -24(%rbp)
	xorl	%eax, %eax
	movq	$0, -136(%rbp)
	jmp	.L191
.L192:
	movq	-136(%rbp), %rdx
	movq	-160(%rbp), %rax
	movq	%rdx, %rsi
	movq	%rax, %rdi
	call	_ZNSt6vectorI5TokenSaIS0_EEixEm
	movq	%rax, %rdx
	leaq	-128(%rbp), %rax
	movq	%rdx, %rsi
	movq	%rax, %rdi
.LEHB14:
	call	_ZN5TokenC1ERKS_
.LEHE14:
	leaq	-128(%rbp), %rdx
	movq	-152(%rbp), %rax
	movq	%rdx, %rsi
	movq	%rax, %rdi
.LEHB15:
	call	_ZN5Token4pushES_
.LEHE15:
	leaq	-128(%rbp), %rax
	movq	%rax, %rdi
	call	_ZN5TokenD1Ev
	addq	$1, -136(%rbp)
.L191:
	movq	-160(%rbp), %rax
	movq	%rax, %rdi
	call	_ZNKSt6vectorI5TokenSaIS0_EE4sizeEv
	cmpq	%rax, -136(%rbp)
	setne	%al
	testb	%al, %al
	jne	.L192
	jmp	.L196
.L195:
	endbr64
	movq	%rax, %rbx
	leaq	-128(%rbp), %rax
	movq	%rax, %rdi
	call	_ZN5TokenD1Ev
	movq	%rbx, %rax
	movq	%rax, %rdi
.LEHB16:
	call	_Unwind_Resume@PLT
.LEHE16:
.L196:
	movq	-24(%rbp), %rax
	subq	%fs:40, %rax
	je	.L194
	call	__stack_chk_fail@PLT
.L194:
	movq	-8(%rbp), %rbx
	leave
	.cfi_def_cfa 7, 8
	ret
	.cfi_endproc
.LFE5155:
	.section	.gcc_except_table._ZN5Token4pushERSt6vectorIS_SaIS_EE,"aG",@progbits,_ZN5Token4pushERSt6vectorIS_SaIS_EE,comdat
.LLSDA5155:
	.byte	0xff
	.byte	0xff
	.byte	0x1
	.uleb128 .LLSDACSE5155-.LLSDACSB5155
.LLSDACSB5155:
	.uleb128 .LEHB14-.LFB5155
	.uleb128 .LEHE14-.LEHB14
	.uleb128 0
	.uleb128 0
	.uleb128 .LEHB15-.LFB5155
	.uleb128 .LEHE15-.LEHB15
	.uleb128 .L195-.LFB5155
	.uleb128 0
	.uleb128 .LEHB16-.LFB5155
	.uleb128 .LEHE16-.LEHB16
	.uleb128 0
	.uleb128 0
.LLSDACSE5155:
	.section	.text._ZN5Token4pushERSt6vectorIS_SaIS_EE,"axG",@progbits,_ZN5Token4pushERSt6vectorIS_SaIS_EE,comdat
	.size	_ZN5Token4pushERSt6vectorIS_SaIS_EE, .-_ZN5Token4pushERSt6vectorIS_SaIS_EE
	.section	.text._ZN5Token4typeB5cxx11Ev,"axG",@progbits,_ZN5Token4typeB5cxx11Ev,comdat
	.align 2
	.weak	_ZN5Token4typeB5cxx11Ev
	.type	_ZN5Token4typeB5cxx11Ev, @function
_ZN5Token4typeB5cxx11Ev:
.LFB5162:
	.cfi_startproc
	endbr64
	pushq	%rbp
	.cfi_def_cfa_offset 16
	.cfi_offset 6, -16
	movq	%rsp, %rbp
	.cfi_def_cfa_register 6
	subq	$16, %rsp
	movq	%rdi, -8(%rbp)
	movq	%rsi, -16(%rbp)
	movq	-16(%rbp), %rdx
	movq	-8(%rbp), %rax
	movq	%rdx, %rsi
	movq	%rax, %rdi
	call	_ZNSt7__cxx1112basic_stringIcSt11char_traitsIcESaIcEEC1ERKS4_@PLT
	movq	-8(%rbp), %rax
	leave
	.cfi_def_cfa 7, 8
	ret
	.cfi_endproc
.LFE5162:
	.size	_ZN5Token4typeB5cxx11Ev, .-_ZN5Token4typeB5cxx11Ev
	.section	.text._ZN5Token5valueB5cxx11Ev,"axG",@progbits,_ZN5Token5valueB5cxx11Ev,comdat
	.align 2
	.weak	_ZN5Token5valueB5cxx11Ev
	.type	_ZN5Token5valueB5cxx11Ev, @function
_ZN5Token5valueB5cxx11Ev:
.LFB5163:
	.cfi_startproc
	endbr64
	pushq	%rbp
	.cfi_def_cfa_offset 16
	.cfi_offset 6, -16
	movq	%rsp, %rbp
	.cfi_def_cfa_register 6
	subq	$16, %rsp
	movq	%rdi, -8(%rbp)
	movq	%rsi, -16(%rbp)
	movq	-16(%rbp), %rax
	leaq	32(%rax), %rdx
	movq	-8(%rbp), %rax
	movq	%rdx, %rsi
	movq	%rax, %rdi
	call	_ZNSt7__cxx1112basic_stringIcSt11char_traitsIcESaIcEEC1ERKS4_@PLT
	movq	-8(%rbp), %rax
	leave
	.cfi_def_cfa 7, 8
	ret
	.cfi_endproc
.LFE5163:
	.size	_ZN5Token5valueB5cxx11Ev, .-_ZN5Token5valueB5cxx11Ev
	.section	.text._ZN5Token4lineEv,"axG",@progbits,_ZN5Token4lineEv,comdat
	.align 2
	.weak	_ZN5Token4lineEv
	.type	_ZN5Token4lineEv, @function
_ZN5Token4lineEv:
.LFB5164:
	.cfi_startproc
	endbr64
	pushq	%rbp
	.cfi_def_cfa_offset 16
	.cfi_offset 6, -16
	movq	%rsp, %rbp
	.cfi_def_cfa_register 6
	movq	%rdi, -8(%rbp)
	movq	-8(%rbp), %rax
	movl	64(%rax), %eax
	popq	%rbp
	.cfi_def_cfa 7, 8
	ret
	.cfi_endproc
.LFE5164:
	.size	_ZN5Token4lineEv, .-_ZN5Token4lineEv
	.section	.text._ZN5Token6columnEv,"axG",@progbits,_ZN5Token6columnEv,comdat
	.align 2
	.weak	_ZN5Token6columnEv
	.type	_ZN5Token6columnEv, @function
_ZN5Token6columnEv:
.LFB5165:
	.cfi_startproc
	endbr64
	pushq	%rbp
	.cfi_def_cfa_offset 16
	.cfi_offset 6, -16
	movq	%rsp, %rbp
	.cfi_def_cfa_register 6
	movq	%rdi, -8(%rbp)
	movq	-8(%rbp), %rax
	movl	68(%rax), %eax
	popq	%rbp
	.cfi_def_cfa 7, 8
	ret
	.cfi_endproc
.LFE5165:
	.size	_ZN5Token6columnEv, .-_ZN5Token6columnEv
	.section	.rodata
.LC6:
	.string	"  "
.LC7:
	.string	"\342\206\265"
.LC8:
	.string	"\n"
.LC9:
	.string	"\r"
.LC10:
	.string	"\033[4m"
.LC11:
	.string	"\033[0m(\033[1;32m"
.LC12:
	.string	":"
.LC13:
	.string	"\033[0m)"
.LC14:
	.string	"\033[0m \033[1;33m"
	.section	.text._ZN5Token5printERSoi,"axG",@progbits,_ZN5Token5printERSoi,comdat
	.align 2
	.weak	_ZN5Token5printERSoi
	.type	_ZN5Token5printERSoi, @function
_ZN5Token5printERSoi:
.LFB5167:
	.cfi_startproc
	.cfi_personality 0x9b,DW.ref.__gxx_personality_v0
	.cfi_lsda 0x1b,.LLSDA5167
	endbr64
	pushq	%rbp
	.cfi_def_cfa_offset 16
	.cfi_offset 6, -16
	movq	%rsp, %rbp
	.cfi_def_cfa_register 6
	pushq	%rbx
	subq	$120, %rsp
	.cfi_offset 3, -24
	movq	%rdi, -104(%rbp)
	movq	%rsi, -112(%rbp)
	movl	%edx, -116(%rbp)
	movq	%fs:40, %rax
	movq	%rax, -24(%rbp)
	xorl	%eax, %eax
	movl	$0, -84(%rbp)
	jmp	.L206
.L207:
	movq	-112(%rbp), %rax
	leaq	.LC6(%rip), %rdx
	movq	%rdx, %rsi
	movq	%rax, %rdi
.LEHB17:
	call	_ZStlsISt11char_traitsIcEERSt13basic_ostreamIcT_ES5_PKc@PLT
	addl	$1, -84(%rbp)
.L206:
	movl	-84(%rbp), %eax
	cmpl	-116(%rbp), %eax
	jne	.L207
	movq	-104(%rbp), %rax
	leaq	32(%rax), %rdx
	leaq	-64(%rbp), %rax
	movq	%rdx, %rsi
	movq	%rax, %rdi
	call	_ZNSt7__cxx1112basic_stringIcSt11char_traitsIcESaIcEEC1ERKS4_@PLT
.LEHE17:
	movq	$0, -80(%rbp)
	jmp	.L208
.L212:
	movq	-80(%rbp), %rsi
	leaq	-64(%rbp), %rax
	leaq	.LC7(%rip), %rdx
	movq	%rdx, %rcx
	movl	$1, %edx
	movq	%rax, %rdi
.LEHB18:
	call	_ZNSt7__cxx1112basic_stringIcSt11char_traitsIcESaIcEE7replaceEmmPKc@PLT
	addq	$1, -80(%rbp)
.L208:
	movq	-80(%rbp), %rdx
	leaq	-64(%rbp), %rax
	leaq	.LC8(%rip), %rcx
	movq	%rcx, %rsi
	movq	%rax, %rdi
	call	_ZNKSt7__cxx1112basic_stringIcSt11char_traitsIcESaIcEE4findEPKcm@PLT
	movq	%rax, -80(%rbp)
	cmpq	$-1, -80(%rbp)
	jne	.L209
	movq	-80(%rbp), %rdx
	leaq	-64(%rbp), %rax
	leaq	.LC9(%rip), %rcx
	movq	%rcx, %rsi
	movq	%rax, %rdi
	call	_ZNKSt7__cxx1112basic_stringIcSt11char_traitsIcESaIcEE4findEPKcm@PLT
	movq	%rax, -80(%rbp)
	cmpq	$-1, -80(%rbp)
	je	.L210
.L209:
	movl	$1, %eax
	jmp	.L211
.L210:
	movl	$0, %eax
.L211:
	testb	%al, %al
	jne	.L212
	movq	-104(%rbp), %rax
	addq	$32, %rax
	leaq	.LC5(%rip), %rdx
	movq	%rdx, %rsi
	movq	%rax, %rdi
	call	_ZSteqIcSt11char_traitsIcESaIcEEbRKNSt7__cxx1112basic_stringIT_T0_T1_EEPKS5_
	testb	%al, %al
	je	.L213
	movq	-112(%rbp), %rax
	leaq	.LC10(%rip), %rdx
	movq	%rdx, %rsi
	movq	%rax, %rdi
	call	_ZStlsISt11char_traitsIcEERSt13basic_ostreamIcT_ES5_PKc@PLT
	movq	%rax, %rdx
	movq	-104(%rbp), %rax
	movq	%rax, %rsi
	movq	%rdx, %rdi
	call	_ZStlsIcSt11char_traitsIcESaIcEERSt13basic_ostreamIT_T0_ES7_RKNSt7__cxx1112basic_stringIS4_S5_T1_EE@PLT
	movq	%rax, %rdx
	leaq	.LC11(%rip), %rax
	movq	%rax, %rsi
	movq	%rdx, %rdi
	call	_ZStlsISt11char_traitsIcEERSt13basic_ostreamIcT_ES5_PKc@PLT
	movq	%rax, %rdx
	movq	-104(%rbp), %rax
	movl	64(%rax), %eax
	movl	%eax, %esi
	movq	%rdx, %rdi
	call	_ZNSolsEi@PLT
	movq	%rax, %rdx
	leaq	.LC12(%rip), %rax
	movq	%rax, %rsi
	movq	%rdx, %rdi
	call	_ZStlsISt11char_traitsIcEERSt13basic_ostreamIcT_ES5_PKc@PLT
	movq	%rax, %rdx
	movq	-104(%rbp), %rax
	movl	68(%rax), %eax
	movl	%eax, %esi
	movq	%rdx, %rdi
	call	_ZNSolsEi@PLT
	movq	%rax, %rdx
	leaq	.LC13(%rip), %rax
	movq	%rax, %rsi
	movq	%rdx, %rdi
	call	_ZStlsISt11char_traitsIcEERSt13basic_ostreamIcT_ES5_PKc@PLT
	movq	_ZSt4endlIcSt11char_traitsIcEERSt13basic_ostreamIT_T0_ES6_@GOTPCREL(%rip), %rdx
	movq	%rdx, %rsi
	movq	%rax, %rdi
	call	_ZNSolsEPFRSoS_E@PLT
	jmp	.L214
.L213:
	movq	-112(%rbp), %rax
	leaq	.LC10(%rip), %rdx
	movq	%rdx, %rsi
	movq	%rax, %rdi
	call	_ZStlsISt11char_traitsIcEERSt13basic_ostreamIcT_ES5_PKc@PLT
	movq	%rax, %rdx
	movq	-104(%rbp), %rax
	movq	%rax, %rsi
	movq	%rdx, %rdi
	call	_ZStlsIcSt11char_traitsIcESaIcEERSt13basic_ostreamIT_T0_ES7_RKNSt7__cxx1112basic_stringIS4_S5_T1_EE@PLT
	movq	%rax, %rdx
	leaq	.LC11(%rip), %rax
	movq	%rax, %rsi
	movq	%rdx, %rdi
	call	_ZStlsISt11char_traitsIcEERSt13basic_ostreamIcT_ES5_PKc@PLT
	movq	%rax, %rdx
	movq	-104(%rbp), %rax
	movl	64(%rax), %eax
	movl	%eax, %esi
	movq	%rdx, %rdi
	call	_ZNSolsEi@PLT
	movq	%rax, %rdx
	leaq	.LC12(%rip), %rax
	movq	%rax, %rsi
	movq	%rdx, %rdi
	call	_ZStlsISt11char_traitsIcEERSt13basic_ostreamIcT_ES5_PKc@PLT
	movq	%rax, %rdx
	movq	-104(%rbp), %rax
	movl	68(%rax), %eax
	movl	%eax, %esi
	movq	%rdx, %rdi
	call	_ZNSolsEi@PLT
	movq	%rax, %rdx
	leaq	.LC14(%rip), %rax
	movq	%rax, %rsi
	movq	%rdx, %rdi
	call	_ZStlsISt11char_traitsIcEERSt13basic_ostreamIcT_ES5_PKc@PLT
	movq	%rax, %rdx
	leaq	-64(%rbp), %rax
	movq	%rax, %rsi
	movq	%rdx, %rdi
	call	_ZStlsIcSt11char_traitsIcESaIcEERSt13basic_ostreamIT_T0_ES7_RKNSt7__cxx1112basic_stringIS4_S5_T1_EE@PLT
	movq	%rax, %rdx
	leaq	.LC13(%rip), %rax
	movq	%rax, %rsi
	movq	%rdx, %rdi
	call	_ZStlsISt11char_traitsIcEERSt13basic_ostreamIcT_ES5_PKc@PLT
	movq	_ZSt4endlIcSt11char_traitsIcEERSt13basic_ostreamIT_T0_ES6_@GOTPCREL(%rip), %rdx
	movq	%rdx, %rsi
	movq	%rax, %rdi
	call	_ZNSolsEPFRSoS_E@PLT
.L214:
	movq	$0, -72(%rbp)
	jmp	.L215
.L216:
	movq	-104(%rbp), %rax
	leaq	72(%rax), %rdx
	movq	-72(%rbp), %rax
	movq	%rax, %rsi
	movq	%rdx, %rdi
	call	_ZNSt6vectorI5TokenSaIS0_EEixEm
	movq	%rax, %rcx
	movl	-116(%rbp), %eax
	leal	1(%rax), %edx
	movq	-112(%rbp), %rax
	movq	%rax, %rsi
	movq	%rcx, %rdi
	call	_ZN5Token5printERSoi
.LEHE18:
	addq	$1, -72(%rbp)
.L215:
	movq	-104(%rbp), %rax
	addq	$72, %rax
	movq	%rax, %rdi
	call	_ZNKSt6vectorI5TokenSaIS0_EE4sizeEv
	cmpq	%rax, -72(%rbp)
	setne	%al
	testb	%al, %al
	jne	.L216
	movq	-112(%rbp), %rbx
	leaq	-64(%rbp), %rax
	movq	%rax, %rdi
	call	_ZNSt7__cxx1112basic_stringIcSt11char_traitsIcESaIcEED1Ev@PLT
	movq	%rbx, %rax
	movq	-24(%rbp), %rdx
	subq	%fs:40, %rdx
	je	.L219
	jmp	.L221
.L220:
	endbr64
	movq	%rax, %rbx
	leaq	-64(%rbp), %rax
	movq	%rax, %rdi
	call	_ZNSt7__cxx1112basic_stringIcSt11char_traitsIcESaIcEED1Ev@PLT
	movq	%rbx, %rax
	movq	%rax, %rdi
.LEHB19:
	call	_Unwind_Resume@PLT
.LEHE19:
.L221:
	call	__stack_chk_fail@PLT
.L219:
	movq	-8(%rbp), %rbx
	leave
	.cfi_def_cfa 7, 8
	ret
	.cfi_endproc
.LFE5167:
	.section	.gcc_except_table._ZN5Token5printERSoi,"aG",@progbits,_ZN5Token5printERSoi,comdat
.LLSDA5167:
	.byte	0xff
	.byte	0xff
	.byte	0x1
	.uleb128 .LLSDACSE5167-.LLSDACSB5167
.LLSDACSB5167:
	.uleb128 .LEHB17-.LFB5167
	.uleb128 .LEHE17-.LEHB17
	.uleb128 0
	.uleb128 0
	.uleb128 .LEHB18-.LFB5167
	.uleb128 .LEHE18-.LEHB18
	.uleb128 .L220-.LFB5167
	.uleb128 0
	.uleb128 .LEHB19-.LFB5167
	.uleb128 .LEHE19-.LEHB19
	.uleb128 0
	.uleb128 0
.LLSDACSE5167:
	.section	.text._ZN5Token5printERSoi,"axG",@progbits,_ZN5Token5printERSoi,comdat
	.size	_ZN5Token5printERSoi, .-_ZN5Token5printERSoi
	.section	.text._ZlsRSoR5Token,"axG",@progbits,_ZlsRSoR5Token,comdat
	.weak	_ZlsRSoR5Token
	.type	_ZlsRSoR5Token, @function
_ZlsRSoR5Token:
.LFB5168:
	.cfi_startproc
	endbr64
	pushq	%rbp
	.cfi_def_cfa_offset 16
	.cfi_offset 6, -16
	movq	%rsp, %rbp
	.cfi_def_cfa_register 6
	subq	$16, %rsp
	movq	%rdi, -8(%rbp)
	movq	%rsi, -16(%rbp)
	movq	-8(%rbp), %rcx
	movq	-16(%rbp), %rax
	movl	$0, %edx
	movq	%rcx, %rsi
	movq	%rax, %rdi
	call	_ZN5Token5printERSoi
	leave
	.cfi_def_cfa 7, 8
	ret
	.cfi_endproc
.LFE5168:
	.size	_ZlsRSoR5Token, .-_ZlsRSoR5Token
	.globl	it
	.bss
	.align 8
	.type	it, @object
	.size	it, 8
it:
	.zero	8
	.globl	it_e
	.align 8
	.type	it_e, @object
	.size	it_e, 8
it_e:
	.zero	8
	.globl	it_label
	.align 8
	.type	it_label, @object
	.size	it_label, 8
it_label:
	.zero	8
	.globl	_Z14it_label_valueB5cxx11
	.align 32
	.type	_Z14it_label_valueB5cxx11, @object
	.size	_Z14it_label_valueB5cxx11, 32
_Z14it_label_valueB5cxx11:
	.zero	32
	.section	.text._ZNSt12_Vector_baseI6LexemeSaIS0_EE12_Vector_implD2Ev,"axG",@progbits,_ZNSt12_Vector_baseI6LexemeSaIS0_EE12_Vector_implD5Ev,comdat
	.align 2
	.weak	_ZNSt12_Vector_baseI6LexemeSaIS0_EE12_Vector_implD2Ev
	.type	_ZNSt12_Vector_baseI6LexemeSaIS0_EE12_Vector_implD2Ev, @function
_ZNSt12_Vector_baseI6LexemeSaIS0_EE12_Vector_implD2Ev:
.LFB5178:
	.cfi_startproc
	endbr64
	pushq	%rbp
	.cfi_def_cfa_offset 16
	.cfi_offset 6, -16
	movq	%rsp, %rbp
	.cfi_def_cfa_register 6
	subq	$16, %rsp
	movq	%rdi, -8(%rbp)
	movq	-8(%rbp), %rax
	movq	%rax, %rdi
	call	_ZNSaI6LexemeED2Ev
	nop
	leave
	.cfi_def_cfa 7, 8
	ret
	.cfi_endproc
.LFE5178:
	.size	_ZNSt12_Vector_baseI6LexemeSaIS0_EE12_Vector_implD2Ev, .-_ZNSt12_Vector_baseI6LexemeSaIS0_EE12_Vector_implD2Ev
	.weak	_ZNSt12_Vector_baseI6LexemeSaIS0_EE12_Vector_implD1Ev
	.set	_ZNSt12_Vector_baseI6LexemeSaIS0_EE12_Vector_implD1Ev,_ZNSt12_Vector_baseI6LexemeSaIS0_EE12_Vector_implD2Ev
	.section	.text._ZNSt12_Vector_baseI6LexemeSaIS0_EEC2Ev,"axG",@progbits,_ZNSt12_Vector_baseI6LexemeSaIS0_EEC5Ev,comdat
	.align 2
	.weak	_ZNSt12_Vector_baseI6LexemeSaIS0_EEC2Ev
	.type	_ZNSt12_Vector_baseI6LexemeSaIS0_EEC2Ev, @function
_ZNSt12_Vector_baseI6LexemeSaIS0_EEC2Ev:
.LFB5180:
	.cfi_startproc
	endbr64
	pushq	%rbp
	.cfi_def_cfa_offset 16
	.cfi_offset 6, -16
	movq	%rsp, %rbp
	.cfi_def_cfa_register 6
	subq	$16, %rsp
	movq	%rdi, -8(%rbp)
	movq	-8(%rbp), %rax
	movq	%rax, %rdi
	call	_ZNSt12_Vector_baseI6LexemeSaIS0_EE12_Vector_implC1Ev
	nop
	leave
	.cfi_def_cfa 7, 8
	ret
	.cfi_endproc
.LFE5180:
	.size	_ZNSt12_Vector_baseI6LexemeSaIS0_EEC2Ev, .-_ZNSt12_Vector_baseI6LexemeSaIS0_EEC2Ev
	.weak	_ZNSt12_Vector_baseI6LexemeSaIS0_EEC1Ev
	.set	_ZNSt12_Vector_baseI6LexemeSaIS0_EEC1Ev,_ZNSt12_Vector_baseI6LexemeSaIS0_EEC2Ev
	.section	.text._ZNSt6vectorI6LexemeSaIS0_EEC2Ev,"axG",@progbits,_ZNSt6vectorI6LexemeSaIS0_EEC5Ev,comdat
	.align 2
	.weak	_ZNSt6vectorI6LexemeSaIS0_EEC2Ev
	.type	_ZNSt6vectorI6LexemeSaIS0_EEC2Ev, @function
_ZNSt6vectorI6LexemeSaIS0_EEC2Ev:
.LFB5182:
	.cfi_startproc
	endbr64
	pushq	%rbp
	.cfi_def_cfa_offset 16
	.cfi_offset 6, -16
	movq	%rsp, %rbp
	.cfi_def_cfa_register 6
	subq	$16, %rsp
	movq	%rdi, -8(%rbp)
	movq	-8(%rbp), %rax
	movq	%rax, %rdi
	call	_ZNSt12_Vector_baseI6LexemeSaIS0_EEC2Ev
	nop
	leave
	.cfi_def_cfa 7, 8
	ret
	.cfi_endproc
.LFE5182:
	.size	_ZNSt6vectorI6LexemeSaIS0_EEC2Ev, .-_ZNSt6vectorI6LexemeSaIS0_EEC2Ev
	.weak	_ZNSt6vectorI6LexemeSaIS0_EEC1Ev
	.set	_ZNSt6vectorI6LexemeSaIS0_EEC1Ev,_ZNSt6vectorI6LexemeSaIS0_EEC2Ev
	.section	.text._ZNSt7__cxx1113match_resultsIN9__gnu_cxx17__normal_iteratorIPKcNS_12basic_stringIcSt11char_traitsIcESaIcEEEEESaINS_9sub_matchISA_EEEED2Ev,"axG",@progbits,_ZNSt7__cxx1113match_resultsIN9__gnu_cxx17__normal_iteratorIPKcNS_12basic_stringIcSt11char_traitsIcESaIcEEEEESaINS_9sub_matchISA_EEEED5Ev,comdat
	.align 2
	.weak	_ZNSt7__cxx1113match_resultsIN9__gnu_cxx17__normal_iteratorIPKcNS_12basic_stringIcSt11char_traitsIcESaIcEEEEESaINS_9sub_matchISA_EEEED2Ev
	.type	_ZNSt7__cxx1113match_resultsIN9__gnu_cxx17__normal_iteratorIPKcNS_12basic_stringIcSt11char_traitsIcESaIcEEEEESaINS_9sub_matchISA_EEEED2Ev, @function
_ZNSt7__cxx1113match_resultsIN9__gnu_cxx17__normal_iteratorIPKcNS_12basic_stringIcSt11char_traitsIcESaIcEEEEESaINS_9sub_matchISA_EEEED2Ev:
.LFB5185:
	.cfi_startproc
	endbr64
	pushq	%rbp
	.cfi_def_cfa_offset 16
	.cfi_offset 6, -16
	movq	%rsp, %rbp
	.cfi_def_cfa_register 6
	subq	$16, %rsp
	movq	%rdi, -8(%rbp)
	movq	-8(%rbp), %rax
	movq	%rax, %rdi
	call	_ZNSt6vectorINSt7__cxx119sub_matchIN9__gnu_cxx17__normal_iteratorIPKcNS0_12basic_stringIcSt11char_traitsIcESaIcEEEEEEESaISC_EED2Ev
	nop
	leave
	.cfi_def_cfa 7, 8
	ret
	.cfi_endproc
.LFE5185:
	.size	_ZNSt7__cxx1113match_resultsIN9__gnu_cxx17__normal_iteratorIPKcNS_12basic_stringIcSt11char_traitsIcESaIcEEEEESaINS_9sub_matchISA_EEEED2Ev, .-_ZNSt7__cxx1113match_resultsIN9__gnu_cxx17__normal_iteratorIPKcNS_12basic_stringIcSt11char_traitsIcESaIcEEEEESaINS_9sub_matchISA_EEEED2Ev
	.weak	_ZNSt7__cxx1113match_resultsIN9__gnu_cxx17__normal_iteratorIPKcNS_12basic_stringIcSt11char_traitsIcESaIcEEEEESaINS_9sub_matchISA_EEEED1Ev
	.set	_ZNSt7__cxx1113match_resultsIN9__gnu_cxx17__normal_iteratorIPKcNS_12basic_stringIcSt11char_traitsIcESaIcEEEEESaINS_9sub_matchISA_EEEED1Ev,_ZNSt7__cxx1113match_resultsIN9__gnu_cxx17__normal_iteratorIPKcNS_12basic_stringIcSt11char_traitsIcESaIcEEEEESaINS_9sub_matchISA_EEEED2Ev
	.text
	.align 2
	.type	_ZZ3lexNSt7__cxx1112basic_stringIcSt11char_traitsIcESaIcEEEENKUlcE_clEc, @function
_ZZ3lexNSt7__cxx1112basic_stringIcSt11char_traitsIcESaIcEEEENKUlcE_clEc:
.LFB5188:
	.cfi_startproc
	pushq	%rbp
	.cfi_def_cfa_offset 16
	.cfi_offset 6, -16
	movq	%rsp, %rbp
	.cfi_def_cfa_register 6
	movq	%rdi, -8(%rbp)
	movl	%esi, %eax
	movb	%al, -12(%rbp)
	cmpb	$10, -12(%rbp)
	je	.L229
	cmpb	$13, -12(%rbp)
	jne	.L230
.L229:
	movl	$1, %eax
	jmp	.L231
.L230:
	movl	$0, %eax
.L231:
	popq	%rbp
	.cfi_def_cfa 7, 8
	ret
	.cfi_endproc
.LFE5188:
	.size	_ZZ3lexNSt7__cxx1112basic_stringIcSt11char_traitsIcESaIcEEEENKUlcE_clEc, .-_ZZ3lexNSt7__cxx1112basic_stringIcSt11char_traitsIcESaIcEEEENKUlcE_clEc
	.section	.text._ZNSt12_Vector_baseI5TokenSaIS0_EEC2EOS2_,"axG",@progbits,_ZNSt12_Vector_baseI5TokenSaIS0_EEC5EOS2_,comdat
	.align 2
	.weak	_ZNSt12_Vector_baseI5TokenSaIS0_EEC2EOS2_
	.type	_ZNSt12_Vector_baseI5TokenSaIS0_EEC2EOS2_, @function
_ZNSt12_Vector_baseI5TokenSaIS0_EEC2EOS2_:
.LFB5196:
	.cfi_startproc
	endbr64
	pushq	%rbp
	.cfi_def_cfa_offset 16
	.cfi_offset 6, -16
	movq	%rsp, %rbp
	.cfi_def_cfa_register 6
	subq	$16, %rsp
	movq	%rdi, -8(%rbp)
	movq	%rsi, -16(%rbp)
	movq	-8(%rbp), %rax
	movq	-16(%rbp), %rdx
	movq	%rdx, %rsi
	movq	%rax, %rdi
	call	_ZNSt12_Vector_baseI5TokenSaIS0_EE12_Vector_implC1EOS3_
	nop
	leave
	.cfi_def_cfa 7, 8
	ret
	.cfi_endproc
.LFE5196:
	.size	_ZNSt12_Vector_baseI5TokenSaIS0_EEC2EOS2_, .-_ZNSt12_Vector_baseI5TokenSaIS0_EEC2EOS2_
	.weak	_ZNSt12_Vector_baseI5TokenSaIS0_EEC1EOS2_
	.set	_ZNSt12_Vector_baseI5TokenSaIS0_EEC1EOS2_,_ZNSt12_Vector_baseI5TokenSaIS0_EEC2EOS2_
	.section	.text._ZNSt6vectorI5TokenSaIS0_EEC2EOS2_,"axG",@progbits,_ZNSt6vectorI5TokenSaIS0_EEC5EOS2_,comdat
	.align 2
	.weak	_ZNSt6vectorI5TokenSaIS0_EEC2EOS2_
	.type	_ZNSt6vectorI5TokenSaIS0_EEC2EOS2_, @function
_ZNSt6vectorI5TokenSaIS0_EEC2EOS2_:
.LFB5198:
	.cfi_startproc
	endbr64
	pushq	%rbp
	.cfi_def_cfa_offset 16
	.cfi_offset 6, -16
	movq	%rsp, %rbp
	.cfi_def_cfa_register 6
	subq	$16, %rsp
	movq	%rdi, -8(%rbp)
	movq	%rsi, -16(%rbp)
	movq	-8(%rbp), %rax
	movq	-16(%rbp), %rdx
	movq	%rdx, %rsi
	movq	%rax, %rdi
	call	_ZNSt12_Vector_baseI5TokenSaIS0_EEC2EOS2_
	nop
	leave
	.cfi_def_cfa 7, 8
	ret
	.cfi_endproc
.LFE5198:
	.size	_ZNSt6vectorI5TokenSaIS0_EEC2EOS2_, .-_ZNSt6vectorI5TokenSaIS0_EEC2EOS2_
	.weak	_ZNSt6vectorI5TokenSaIS0_EEC1EOS2_
	.set	_ZNSt6vectorI5TokenSaIS0_EEC1EOS2_,_ZNSt6vectorI5TokenSaIS0_EEC2EOS2_
	.section	.rodata
.LC15:
	.string	".ignore"
.LC16:
	.string	"ERROR"
	.text
	.globl	_Z3lexNSt7__cxx1112basic_stringIcSt11char_traitsIcESaIcEEE
	.type	_Z3lexNSt7__cxx1112basic_stringIcSt11char_traitsIcESaIcEEE, @function
_Z3lexNSt7__cxx1112basic_stringIcSt11char_traitsIcESaIcEEE:
.LFB5173:
	.cfi_startproc
	.cfi_personality 0x9b,DW.ref.__gxx_personality_v0
	.cfi_lsda 0x1b,.LLSDA5173
	endbr64
	pushq	%rbp
	.cfi_def_cfa_offset 16
	.cfi_offset 6, -16
	movq	%rsp, %rbp
	.cfi_def_cfa_register 6
	pushq	%r13
	pushq	%r12
	pushq	%rbx
	subq	$328, %rsp
	.cfi_offset 13, -24
	.cfi_offset 12, -32
	.cfi_offset 3, -40
	movq	%rdi, -344(%rbp)
	movq	%rsi, -352(%rbp)
	movq	%fs:40, %rax
	movq	%rax, -40(%rbp)
	xorl	%eax, %eax
	leaq	-304(%rbp), %rax
	movq	%rax, %rdi
	call	_ZNSt6vectorI6LexemeSaIS0_EEC1Ev
	leaq	-304(%rbp), %rax
	movq	%rax, %rdi
.LEHB20:
	call	_Z14create_lexemesRSt6vectorI6LexemeSaIS0_EE
.LEHE20:
	movq	-344(%rbp), %rax
	movq	$0, (%rax)
	movq	$0, 8(%rax)
	movq	$0, 16(%rax)
	movq	-344(%rbp), %rax
	movq	%rax, %rdi
	call	_ZNSt6vectorI5TokenSaIS0_EEC1Ev
	movl	$0, -328(%rbp)
	movl	$0, -324(%rbp)
	jmp	.L236
.L254:
	movb	$0, -329(%rbp)
	movq	$0, -320(%rbp)
	jmp	.L237
.L253:
	movq	-320(%rbp), %rdx
	leaq	-304(%rbp), %rax
	movq	%rdx, %rsi
	movq	%rax, %rdi
	call	_ZNSt6vectorI6LexemeSaIS0_EEixEm
	movq	%rax, %rdx
	leaq	-272(%rbp), %rax
	movq	%rdx, %rsi
	movq	%rax, %rdi
	call	_ZN6Lexeme5valueB5cxx11Ev
	leaq	-240(%rbp), %rax
	movq	%rax, %rdi
	call	_ZNSt7__cxx1113match_resultsIN9__gnu_cxx17__normal_iteratorIPKcNS_12basic_stringIcSt11char_traitsIcESaIcEEEEESaINS_9sub_matchISA_EEEEC1Ev
	leaq	-272(%rbp), %rdx
	leaq	-240(%rbp), %rsi
	movq	-352(%rbp), %rax
	movl	$0, %ecx
	movq	%rax, %rdi
.LEHB21:
	call	_ZSt12regex_searchISt11char_traitsIcESaIcESaINSt7__cxx119sub_matchIN9__gnu_cxx17__normal_iteratorIPKcNS3_12basic_stringIcS1_S2_EEEEEEEcNS3_12regex_traitsIcEEEbRKNS9_IT2_T_T0_EERNS3_13match_resultsINSJ_14const_iteratorET1_EERKNS3_11basic_regexISG_T3_EENSt15regex_constants15match_flag_typeE
	testb	%al, %al
	je	.L238
	leaq	-240(%rbp), %rax
	movl	$0, %esi
	movq	%rax, %rdi
	call	_ZNKSt7__cxx1113match_resultsIN9__gnu_cxx17__normal_iteratorIPKcNS_12basic_stringIcSt11char_traitsIcESaIcEEEEESaINS_9sub_matchISA_EEEE8positionEm
	testq	%rax, %rax
	jne	.L239
	leaq	-240(%rbp), %rax
	movl	$0, %esi
	movq	%rax, %rdi
	call	_ZNKSt7__cxx1113match_resultsIN9__gnu_cxx17__normal_iteratorIPKcNS_12basic_stringIcSt11char_traitsIcESaIcEEEEESaINS_9sub_matchISA_EEEE6lengthEm
	testq	%rax, %rax
	jle	.L239
	movl	$1, %eax
	jmp	.L240
.L239:
	movl	$0, %eax
.L240:
	testb	%al, %al
	je	.L238
	movq	-320(%rbp), %rdx
	leaq	-304(%rbp), %rax
	movq	%rdx, %rsi
	movq	%rax, %rdi
	call	_ZNSt6vectorI6LexemeSaIS0_EEixEm
	movq	%rax, %rdx
	leaq	-176(%rbp), %rax
	movq	%rdx, %rsi
	movq	%rax, %rdi
	call	_ZN6Lexeme4typeB5cxx11Ev
	leaq	-176(%rbp), %rax
	leaq	.LC15(%rip), %rdx
	movq	%rdx, %rsi
	movq	%rax, %rdi
	call	_ZStneIcSt11char_traitsIcESaIcEEbRKNSt7__cxx1112basic_stringIT_T0_T1_EEPKS5_
	movl	%eax, %ebx
	leaq	-176(%rbp), %rax
	movq	%rax, %rdi
	call	_ZNSt7__cxx1112basic_stringIcSt11char_traitsIcESaIcEED1Ev@PLT
	testb	%bl, %bl
	je	.L241
	leaq	-176(%rbp), %rax
	leaq	-240(%rbp), %rcx
	movl	$0, %edx
	movq	%rcx, %rsi
	movq	%rax, %rdi
	call	_ZNKSt7__cxx1113match_resultsIN9__gnu_cxx17__normal_iteratorIPKcNS_12basic_stringIcSt11char_traitsIcESaIcEEEEESaINS_9sub_matchISA_EEEE3strEm
.LEHE21:
	movq	-320(%rbp), %rdx
	leaq	-304(%rbp), %rax
	movq	%rdx, %rsi
	movq	%rax, %rdi
	call	_ZNSt6vectorI6LexemeSaIS0_EEixEm
	movq	%rax, %rdx
	leaq	-208(%rbp), %rax
	movq	%rdx, %rsi
	movq	%rax, %rdi
.LEHB22:
	call	_ZN6Lexeme4typeB5cxx11Ev
.LEHE22:
	movl	-328(%rbp), %edi
	movl	-324(%rbp), %ecx
	leaq	-176(%rbp), %rdx
	leaq	-208(%rbp), %rsi
	leaq	-144(%rbp), %rax
	movl	%edi, %r8d
	movq	%rax, %rdi
.LEHB23:
	call	_ZN5TokenC1ENSt7__cxx1112basic_stringIcSt11char_traitsIcESaIcEEES5_ii
.LEHE23:
	leaq	-144(%rbp), %rdx
	movq	-344(%rbp), %rax
	movq	%rdx, %rsi
	movq	%rax, %rdi
.LEHB24:
	call	_ZNSt6vectorI5TokenSaIS0_EE9push_backEOS0_
.LEHE24:
	leaq	-144(%rbp), %rax
	movq	%rax, %rdi
	call	_ZN5TokenD1Ev
	leaq	-208(%rbp), %rax
	movq	%rax, %rdi
	call	_ZNSt7__cxx1112basic_stringIcSt11char_traitsIcESaIcEED1Ev@PLT
	leaq	-176(%rbp), %rax
	movq	%rax, %rdi
	call	_ZNSt7__cxx1112basic_stringIcSt11char_traitsIcESaIcEED1Ev@PLT
.L241:
	movl	$0, %ebx
	movl	$0, %r12d
	leaq	-176(%rbp), %rax
	leaq	-240(%rbp), %rcx
	movl	$0, %edx
	movq	%rcx, %rsi
	movq	%rax, %rdi
.LEHB25:
	call	_ZNKSt7__cxx1113match_resultsIN9__gnu_cxx17__normal_iteratorIPKcNS_12basic_stringIcSt11char_traitsIcESaIcEEEEESaINS_9sub_matchISA_EEEE3strEm
	movl	$1, %ebx
	leaq	-176(%rbp), %rax
	movl	$0, %edx
	leaq	.LC8(%rip), %rcx
	movq	%rcx, %rsi
	movq	%rax, %rdi
	call	_ZNKSt7__cxx1112basic_stringIcSt11char_traitsIcESaIcEE4findEPKcm@PLT
	cmpq	$-1, %rax
	jne	.L242
	leaq	-144(%rbp), %rax
	leaq	-240(%rbp), %rcx
	movl	$0, %edx
	movq	%rcx, %rsi
	movq	%rax, %rdi
	call	_ZNKSt7__cxx1113match_resultsIN9__gnu_cxx17__normal_iteratorIPKcNS_12basic_stringIcSt11char_traitsIcESaIcEEEEESaINS_9sub_matchISA_EEEE3strEm
.LEHE25:
	movl	$1, %r12d
	leaq	-144(%rbp), %rax
	movl	$0, %edx
	leaq	.LC9(%rip), %rcx
	movq	%rcx, %rsi
	movq	%rax, %rdi
	call	_ZNKSt7__cxx1112basic_stringIcSt11char_traitsIcESaIcEE4findEPKcm@PLT
	cmpq	$-1, %rax
	je	.L243
.L242:
	movl	$1, %r13d
	jmp	.L244
.L243:
	movl	$0, %r13d
.L244:
	testb	%r12b, %r12b
	je	.L245
	leaq	-144(%rbp), %rax
	movq	%rax, %rdi
	call	_ZNSt7__cxx1112basic_stringIcSt11char_traitsIcESaIcEED1Ev@PLT
.L245:
	testb	%bl, %bl
	je	.L246
	leaq	-176(%rbp), %rax
	movq	%rax, %rdi
	call	_ZNSt7__cxx1112basic_stringIcSt11char_traitsIcESaIcEED1Ev@PLT
.L246:
	testb	%r13b, %r13b
	je	.L247
	leaq	-144(%rbp), %rax
	leaq	-240(%rbp), %rcx
	movl	$0, %edx
	movq	%rcx, %rsi
	movq	%rax, %rdi
.LEHB26:
	call	_ZNKSt7__cxx1113match_resultsIN9__gnu_cxx17__normal_iteratorIPKcNS_12basic_stringIcSt11char_traitsIcESaIcEEEEESaINS_9sub_matchISA_EEEE3strEm
.LEHE26:
	leaq	-144(%rbp), %rax
	movq	%rax, %rdi
	call	_ZNSt7__cxx1112basic_stringIcSt11char_traitsIcESaIcEE3endEv@PLT
	movq	%rax, %rbx
	leaq	-176(%rbp), %rax
	leaq	-240(%rbp), %rcx
	movl	$0, %edx
	movq	%rcx, %rsi
	movq	%rax, %rdi
.LEHB27:
	call	_ZNKSt7__cxx1113match_resultsIN9__gnu_cxx17__normal_iteratorIPKcNS_12basic_stringIcSt11char_traitsIcESaIcEEEEESaINS_9sub_matchISA_EEEE3strEm
.LEHE27:
	leaq	-176(%rbp), %rax
	movq	%rax, %rdi
	call	_ZNSt7__cxx1112basic_stringIcSt11char_traitsIcESaIcEE5beginEv@PLT
	movq	%rbx, %rsi
	movq	%rax, %rdi
.LEHB28:
	call	_ZSt8count_ifIN9__gnu_cxx17__normal_iteratorIPcNSt7__cxx1112basic_stringIcSt11char_traitsIcESaIcEEEEEZ3lexS8_EUlcE_ENSt15iterator_traitsIT_E15difference_typeESC_SC_T0_
.LEHE28:
	movq	%rax, %rdx
	shrq	$63, %rdx
	addq	%rdx, %rax
	sarq	%rax
	movq	%rax, -312(%rbp)
	leaq	-176(%rbp), %rax
	movq	%rax, %rdi
	call	_ZNSt7__cxx1112basic_stringIcSt11char_traitsIcESaIcEED1Ev@PLT
	leaq	-144(%rbp), %rax
	movq	%rax, %rdi
	call	_ZNSt7__cxx1112basic_stringIcSt11char_traitsIcESaIcEED1Ev@PLT
	movq	-312(%rbp), %rax
	movl	%eax, %edx
	movl	-324(%rbp), %eax
	addl	%edx, %eax
	movl	%eax, -324(%rbp)
	movq	-312(%rbp), %rax
	negl	%eax
	movl	%eax, -328(%rbp)
.L247:
	leaq	-240(%rbp), %rax
	movl	$0, %esi
	movq	%rax, %rdi
.LEHB29:
	call	_ZNKSt7__cxx1113match_resultsIN9__gnu_cxx17__normal_iteratorIPKcNS_12basic_stringIcSt11char_traitsIcESaIcEEEEESaINS_9sub_matchISA_EEEE6lengthEm
	movl	%eax, %edx
	movl	-328(%rbp), %eax
	addl	%edx, %eax
	movl	%eax, -328(%rbp)
	leaq	-240(%rbp), %rax
	movq	%rax, %rdi
	call	_ZNKSt7__cxx1113match_resultsIN9__gnu_cxx17__normal_iteratorIPKcNS_12basic_stringIcSt11char_traitsIcESaIcEEEEESaINS_9sub_matchISA_EEEE6suffixEv
	movq	%rax, %rdx
	leaq	-144(%rbp), %rax
	movq	%rdx, %rsi
	movq	%rax, %rdi
	call	_ZNKSt7__cxx119sub_matchIN9__gnu_cxx17__normal_iteratorIPKcNS_12basic_stringIcSt11char_traitsIcESaIcEEEEEEcvS9_Ev
.LEHE29:
	leaq	-144(%rbp), %rdx
	movq	-352(%rbp), %rax
	movq	%rdx, %rsi
	movq	%rax, %rdi
	call	_ZNSt7__cxx1112basic_stringIcSt11char_traitsIcESaIcEEaSEOS4_@PLT
	leaq	-144(%rbp), %rax
	movq	%rax, %rdi
	call	_ZNSt7__cxx1112basic_stringIcSt11char_traitsIcESaIcEED1Ev@PLT
	movb	$1, -329(%rbp)
	movl	$0, %ebx
	jmp	.L248
.L238:
	movl	$1, %ebx
.L248:
	leaq	-240(%rbp), %rax
	movq	%rax, %rdi
	call	_ZNSt7__cxx1113match_resultsIN9__gnu_cxx17__normal_iteratorIPKcNS_12basic_stringIcSt11char_traitsIcESaIcEEEEESaINS_9sub_matchISA_EEEED1Ev
	cmpl	$1, %ebx
	jne	.L249
	movl	$1, %ebx
	jmp	.L250
.L249:
	movl	$0, %ebx
.L250:
	leaq	-272(%rbp), %rax
	movq	%rax, %rdi
	call	_ZNSt7__cxx1111basic_regexIcNS_12regex_traitsIcEEED1Ev
	cmpl	$1, %ebx
	jne	.L252
	addq	$1, -320(%rbp)
.L237:
	leaq	-304(%rbp), %rax
	movq	%rax, %rdi
	call	_ZNKSt6vectorI6LexemeSaIS0_EE4sizeEv
	cmpq	%rax, -320(%rbp)
	setne	%al
	testb	%al, %al
	jne	.L253
.L252:
	movzbl	-329(%rbp), %eax
	xorl	$1, %eax
	testb	%al, %al
	je	.L236
	leaq	.LC16(%rip), %rax
	movq	%rax, %rsi
	leaq	_ZSt4cerr(%rip), %rax
	movq	%rax, %rdi
.LEHB30:
	call	_ZStlsISt11char_traitsIcEERSt13basic_ostreamIcT_ES5_PKc@PLT
	movq	_ZSt4endlIcSt11char_traitsIcEERSt13basic_ostreamIT_T0_ES6_@GOTPCREL(%rip), %rdx
	movq	%rdx, %rsi
	movq	%rax, %rdi
	call	_ZNSolsEPFRSoS_E@PLT
.LEHE30:
	movl	$1, %edi
	call	exit@PLT
.L236:
	movq	-352(%rbp), %rax
	movq	%rax, %rdi
	call	_ZNKSt7__cxx1112basic_stringIcSt11char_traitsIcESaIcEE4sizeEv@PLT
	testq	%rax, %rax
	setne	%al
	testb	%al, %al
	jne	.L254
	nop
	leaq	-304(%rbp), %rax
	movq	%rax, %rdi
	call	_ZNSt6vectorI6LexemeSaIS0_EED1Ev
	nop
	movq	-40(%rbp), %rax
	subq	%fs:40, %rax
	je	.L267
	jmp	.L277
.L272:
	endbr64
	movq	%rax, %rbx
	leaq	-144(%rbp), %rax
	movq	%rax, %rdi
	call	_ZN5TokenD1Ev
	jmp	.L257
.L271:
	endbr64
	movq	%rax, %rbx
.L257:
	leaq	-208(%rbp), %rax
	movq	%rax, %rdi
	call	_ZNSt7__cxx1112basic_stringIcSt11char_traitsIcESaIcEED1Ev@PLT
	jmp	.L258
.L270:
	endbr64
	movq	%rax, %rbx
.L258:
	leaq	-176(%rbp), %rax
	movq	%rax, %rdi
	call	_ZNSt7__cxx1112basic_stringIcSt11char_traitsIcESaIcEED1Ev@PLT
	jmp	.L259
.L273:
	endbr64
	movq	%rax, %r13
	testb	%r12b, %r12b
	je	.L261
	leaq	-144(%rbp), %rax
	movq	%rax, %rdi
	call	_ZNSt7__cxx1112basic_stringIcSt11char_traitsIcESaIcEED1Ev@PLT
.L261:
	movq	%r13, %r12
	testb	%bl, %bl
	je	.L262
	leaq	-176(%rbp), %rax
	movq	%rax, %rdi
	call	_ZNSt7__cxx1112basic_stringIcSt11char_traitsIcESaIcEED1Ev@PLT
.L262:
	movq	%r12, %rbx
	jmp	.L259
.L275:
	endbr64
	movq	%rax, %rbx
	leaq	-176(%rbp), %rax
	movq	%rax, %rdi
	call	_ZNSt7__cxx1112basic_stringIcSt11char_traitsIcESaIcEED1Ev@PLT
	jmp	.L264
.L274:
	endbr64
	movq	%rax, %rbx
.L264:
	leaq	-144(%rbp), %rax
	movq	%rax, %rdi
	call	_ZNSt7__cxx1112basic_stringIcSt11char_traitsIcESaIcEED1Ev@PLT
	jmp	.L259
.L269:
	endbr64
	movq	%rax, %rbx
.L259:
	leaq	-240(%rbp), %rax
	movq	%rax, %rdi
	call	_ZNSt7__cxx1113match_resultsIN9__gnu_cxx17__normal_iteratorIPKcNS_12basic_stringIcSt11char_traitsIcESaIcEEEEESaINS_9sub_matchISA_EEEED1Ev
	leaq	-272(%rbp), %rax
	movq	%rax, %rdi
	call	_ZNSt7__cxx1111basic_regexIcNS_12regex_traitsIcEEED1Ev
	jmp	.L265
.L276:
	endbr64
	movq	%rax, %rbx
.L265:
	movq	-344(%rbp), %rax
	movq	%rax, %rdi
	call	_ZNSt6vectorI5TokenSaIS0_EED1Ev
	jmp	.L266
.L268:
	endbr64
	movq	%rax, %rbx
.L266:
	leaq	-304(%rbp), %rax
	movq	%rax, %rdi
	call	_ZNSt6vectorI6LexemeSaIS0_EED1Ev
	movq	%rbx, %rax
	movq	%rax, %rdi
.LEHB31:
	call	_Unwind_Resume@PLT
.LEHE31:
.L277:
	call	__stack_chk_fail@PLT
.L267:
	movq	-344(%rbp), %rax
	addq	$328, %rsp
	popq	%rbx
	popq	%r12
	popq	%r13
	popq	%rbp
	.cfi_def_cfa 7, 8
	ret
	.cfi_endproc
.LFE5173:
	.section	.gcc_except_table,"a",@progbits
.LLSDA5173:
	.byte	0xff
	.byte	0xff
	.byte	0x1
	.uleb128 .LLSDACSE5173-.LLSDACSB5173
.LLSDACSB5173:
	.uleb128 .LEHB20-.LFB5173
	.uleb128 .LEHE20-.LEHB20
	.uleb128 .L268-.LFB5173
	.uleb128 0
	.uleb128 .LEHB21-.LFB5173
	.uleb128 .LEHE21-.LEHB21
	.uleb128 .L269-.LFB5173
	.uleb128 0
	.uleb128 .LEHB22-.LFB5173
	.uleb128 .LEHE22-.LEHB22
	.uleb128 .L270-.LFB5173
	.uleb128 0
	.uleb128 .LEHB23-.LFB5173
	.uleb128 .LEHE23-.LEHB23
	.uleb128 .L271-.LFB5173
	.uleb128 0
	.uleb128 .LEHB24-.LFB5173
	.uleb128 .LEHE24-.LEHB24
	.uleb128 .L272-.LFB5173
	.uleb128 0
	.uleb128 .LEHB25-.LFB5173
	.uleb128 .LEHE25-.LEHB25
	.uleb128 .L273-.LFB5173
	.uleb128 0
	.uleb128 .LEHB26-.LFB5173
	.uleb128 .LEHE26-.LEHB26
	.uleb128 .L269-.LFB5173
	.uleb128 0
	.uleb128 .LEHB27-.LFB5173
	.uleb128 .LEHE27-.LEHB27
	.uleb128 .L274-.LFB5173
	.uleb128 0
	.uleb128 .LEHB28-.LFB5173
	.uleb128 .LEHE28-.LEHB28
	.uleb128 .L275-.LFB5173
	.uleb128 0
	.uleb128 .LEHB29-.LFB5173
	.uleb128 .LEHE29-.LEHB29
	.uleb128 .L269-.LFB5173
	.uleb128 0
	.uleb128 .LEHB30-.LFB5173
	.uleb128 .LEHE30-.LEHB30
	.uleb128 .L276-.LFB5173
	.uleb128 0
	.uleb128 .LEHB31-.LFB5173
	.uleb128 .LEHE31-.LEHB31
	.uleb128 0
	.uleb128 0
.LLSDACSE5173:
	.text
	.size	_Z3lexNSt7__cxx1112basic_stringIcSt11char_traitsIcESaIcEEE, .-_Z3lexNSt7__cxx1112basic_stringIcSt11char_traitsIcESaIcEEE
	.section	.text._ZN6LexemeD2Ev,"axG",@progbits,_ZN6LexemeD5Ev,comdat
	.align 2
	.weak	_ZN6LexemeD2Ev
	.type	_ZN6LexemeD2Ev, @function
_ZN6LexemeD2Ev:
.LFB5202:
	.cfi_startproc
	endbr64
	pushq	%rbp
	.cfi_def_cfa_offset 16
	.cfi_offset 6, -16
	movq	%rsp, %rbp
	.cfi_def_cfa_register 6
	subq	$16, %rsp
	movq	%rdi, -8(%rbp)
	movq	-8(%rbp), %rax
	addq	$32, %rax
	movq	%rax, %rdi
	call	_ZNSt7__cxx1111basic_regexIcNS_12regex_traitsIcEEED1Ev
	movq	-8(%rbp), %rax
	movq	%rax, %rdi
	call	_ZNSt7__cxx1112basic_stringIcSt11char_traitsIcESaIcEED1Ev@PLT
	nop
	leave
	.cfi_def_cfa 7, 8
	ret
	.cfi_endproc
.LFE5202:
	.size	_ZN6LexemeD2Ev, .-_ZN6LexemeD2Ev
	.weak	_ZN6LexemeD1Ev
	.set	_ZN6LexemeD1Ev,_ZN6LexemeD2Ev
	.section	.rodata
.LC17:
	.string	"([1-9][0-9]*|0)"
.LC18:
	.string	"int"
.LC19:
	.string	"([a-z]+)"
.LC20:
	.string	"id"
.LC21:
	.string	"([ \t\r\n]+)"
	.text
	.globl	_Z14create_lexemesRSt6vectorI6LexemeSaIS0_EE
	.type	_Z14create_lexemesRSt6vectorI6LexemeSaIS0_EE, @function
_Z14create_lexemesRSt6vectorI6LexemeSaIS0_EE:
.LFB5200:
	.cfi_startproc
	.cfi_personality 0x9b,DW.ref.__gxx_personality_v0
	.cfi_lsda 0x1b,.LLSDA5200
	endbr64
	pushq	%rbp
	.cfi_def_cfa_offset 16
	.cfi_offset 6, -16
	movq	%rsp, %rbp
	.cfi_def_cfa_register 6
	pushq	%rbx
	subq	$184, %rsp
	.cfi_offset 3, -24
	movq	%rdi, -184(%rbp)
	movq	%fs:40, %rax
	movq	%rax, -24(%rbp)
	xorl	%eax, %eax
	leaq	-161(%rbp), %rax
	movq	%rax, %rdi
	call	_ZNSaIcEC1Ev@PLT
	leaq	-161(%rbp), %rdx
	leaq	-128(%rbp), %rax
	leaq	.LC17(%rip), %rcx
	movq	%rcx, %rsi
	movq	%rax, %rdi
.LEHB32:
	call	_ZNSt7__cxx1112basic_stringIcSt11char_traitsIcESaIcEEC1IS3_EEPKcRKS3_
.LEHE32:
	leaq	-162(%rbp), %rax
	movq	%rax, %rdi
	call	_ZNSaIcEC1Ev@PLT
	leaq	-162(%rbp), %rdx
	leaq	-160(%rbp), %rax
	leaq	.LC18(%rip), %rcx
	movq	%rcx, %rsi
	movq	%rax, %rdi
.LEHB33:
	call	_ZNSt7__cxx1112basic_stringIcSt11char_traitsIcESaIcEEC1IS3_EEPKcRKS3_
.LEHE33:
	leaq	-128(%rbp), %rdx
	leaq	-160(%rbp), %rcx
	leaq	-96(%rbp), %rax
	movq	%rcx, %rsi
	movq	%rax, %rdi
.LEHB34:
	call	_ZN6LexemeC1ENSt7__cxx1112basic_stringIcSt11char_traitsIcESaIcEEES5_
.LEHE34:
	leaq	-96(%rbp), %rdx
	movq	-184(%rbp), %rax
	movq	%rdx, %rsi
	movq	%rax, %rdi
.LEHB35:
	call	_ZNSt6vectorI6LexemeSaIS0_EE9push_backEOS0_
.LEHE35:
	leaq	-96(%rbp), %rax
	movq	%rax, %rdi
	call	_ZN6LexemeD1Ev
	leaq	-160(%rbp), %rax
	movq	%rax, %rdi
	call	_ZNSt7__cxx1112basic_stringIcSt11char_traitsIcESaIcEED1Ev@PLT
	leaq	-162(%rbp), %rax
	movq	%rax, %rdi
	call	_ZNSaIcED1Ev@PLT
	leaq	-128(%rbp), %rax
	movq	%rax, %rdi
	call	_ZNSt7__cxx1112basic_stringIcSt11char_traitsIcESaIcEED1Ev@PLT
	leaq	-161(%rbp), %rax
	movq	%rax, %rdi
	call	_ZNSaIcED1Ev@PLT
	leaq	-161(%rbp), %rax
	movq	%rax, %rdi
	call	_ZNSaIcEC1Ev@PLT
	leaq	-161(%rbp), %rdx
	leaq	-128(%rbp), %rax
	leaq	.LC19(%rip), %rcx
	movq	%rcx, %rsi
	movq	%rax, %rdi
.LEHB36:
	call	_ZNSt7__cxx1112basic_stringIcSt11char_traitsIcESaIcEEC1IS3_EEPKcRKS3_
.LEHE36:
	leaq	-162(%rbp), %rax
	movq	%rax, %rdi
	call	_ZNSaIcEC1Ev@PLT
	leaq	-162(%rbp), %rdx
	leaq	-160(%rbp), %rax
	leaq	.LC20(%rip), %rcx
	movq	%rcx, %rsi
	movq	%rax, %rdi
.LEHB37:
	call	_ZNSt7__cxx1112basic_stringIcSt11char_traitsIcESaIcEEC1IS3_EEPKcRKS3_
.LEHE37:
	leaq	-128(%rbp), %rdx
	leaq	-160(%rbp), %rcx
	leaq	-96(%rbp), %rax
	movq	%rcx, %rsi
	movq	%rax, %rdi
.LEHB38:
	call	_ZN6LexemeC1ENSt7__cxx1112basic_stringIcSt11char_traitsIcESaIcEEES5_
.LEHE38:
	leaq	-96(%rbp), %rdx
	movq	-184(%rbp), %rax
	movq	%rdx, %rsi
	movq	%rax, %rdi
.LEHB39:
	call	_ZNSt6vectorI6LexemeSaIS0_EE9push_backEOS0_
.LEHE39:
	leaq	-96(%rbp), %rax
	movq	%rax, %rdi
	call	_ZN6LexemeD1Ev
	leaq	-160(%rbp), %rax
	movq	%rax, %rdi
	call	_ZNSt7__cxx1112basic_stringIcSt11char_traitsIcESaIcEED1Ev@PLT
	leaq	-162(%rbp), %rax
	movq	%rax, %rdi
	call	_ZNSaIcED1Ev@PLT
	leaq	-128(%rbp), %rax
	movq	%rax, %rdi
	call	_ZNSt7__cxx1112basic_stringIcSt11char_traitsIcESaIcEED1Ev@PLT
	leaq	-161(%rbp), %rax
	movq	%rax, %rdi
	call	_ZNSaIcED1Ev@PLT
	leaq	-161(%rbp), %rax
	movq	%rax, %rdi
	call	_ZNSaIcEC1Ev@PLT
	leaq	-161(%rbp), %rdx
	leaq	-128(%rbp), %rax
	leaq	.LC21(%rip), %rcx
	movq	%rcx, %rsi
	movq	%rax, %rdi
.LEHB40:
	call	_ZNSt7__cxx1112basic_stringIcSt11char_traitsIcESaIcEEC1IS3_EEPKcRKS3_
.LEHE40:
	leaq	-162(%rbp), %rax
	movq	%rax, %rdi
	call	_ZNSaIcEC1Ev@PLT
	leaq	-162(%rbp), %rdx
	leaq	-160(%rbp), %rax
	leaq	.LC15(%rip), %rcx
	movq	%rcx, %rsi
	movq	%rax, %rdi
.LEHB41:
	call	_ZNSt7__cxx1112basic_stringIcSt11char_traitsIcESaIcEEC1IS3_EEPKcRKS3_
.LEHE41:
	leaq	-128(%rbp), %rdx
	leaq	-160(%rbp), %rcx
	leaq	-96(%rbp), %rax
	movq	%rcx, %rsi
	movq	%rax, %rdi
.LEHB42:
	call	_ZN6LexemeC1ENSt7__cxx1112basic_stringIcSt11char_traitsIcESaIcEEES5_
.LEHE42:
	leaq	-96(%rbp), %rdx
	movq	-184(%rbp), %rax
	movq	%rdx, %rsi
	movq	%rax, %rdi
.LEHB43:
	call	_ZNSt6vectorI6LexemeSaIS0_EE9push_backEOS0_
.LEHE43:
	leaq	-96(%rbp), %rax
	movq	%rax, %rdi
	call	_ZN6LexemeD1Ev
	leaq	-160(%rbp), %rax
	movq	%rax, %rdi
	call	_ZNSt7__cxx1112basic_stringIcSt11char_traitsIcESaIcEED1Ev@PLT
	leaq	-162(%rbp), %rax
	movq	%rax, %rdi
	call	_ZNSaIcED1Ev@PLT
	leaq	-128(%rbp), %rax
	movq	%rax, %rdi
	call	_ZNSt7__cxx1112basic_stringIcSt11char_traitsIcESaIcEED1Ev@PLT
	leaq	-161(%rbp), %rax
	movq	%rax, %rdi
	call	_ZNSaIcED1Ev@PLT
	nop
	movq	-24(%rbp), %rax
	subq	%fs:40, %rax
	je	.L292
	jmp	.L305
.L296:
	endbr64
	movq	%rax, %rbx
	leaq	-96(%rbp), %rax
	movq	%rax, %rdi
	call	_ZN6LexemeD1Ev
	jmp	.L281
.L295:
	endbr64
	movq	%rax, %rbx
.L281:
	leaq	-160(%rbp), %rax
	movq	%rax, %rdi
	call	_ZNSt7__cxx1112basic_stringIcSt11char_traitsIcESaIcEED1Ev@PLT
	jmp	.L282
.L294:
	endbr64
	movq	%rax, %rbx
.L282:
	leaq	-162(%rbp), %rax
	movq	%rax, %rdi
	call	_ZNSaIcED1Ev@PLT
	leaq	-128(%rbp), %rax
	movq	%rax, %rdi
	call	_ZNSt7__cxx1112basic_stringIcSt11char_traitsIcESaIcEED1Ev@PLT
	jmp	.L283
.L293:
	endbr64
	movq	%rax, %rbx
.L283:
	leaq	-161(%rbp), %rax
	movq	%rax, %rdi
	call	_ZNSaIcED1Ev@PLT
	movq	%rbx, %rax
	movq	%rax, %rdi
.LEHB44:
	call	_Unwind_Resume@PLT
.L300:
	endbr64
	movq	%rax, %rbx
	leaq	-96(%rbp), %rax
	movq	%rax, %rdi
	call	_ZN6LexemeD1Ev
	jmp	.L285
.L299:
	endbr64
	movq	%rax, %rbx
.L285:
	leaq	-160(%rbp), %rax
	movq	%rax, %rdi
	call	_ZNSt7__cxx1112basic_stringIcSt11char_traitsIcESaIcEED1Ev@PLT
	jmp	.L286
.L298:
	endbr64
	movq	%rax, %rbx
.L286:
	leaq	-162(%rbp), %rax
	movq	%rax, %rdi
	call	_ZNSaIcED1Ev@PLT
	leaq	-128(%rbp), %rax
	movq	%rax, %rdi
	call	_ZNSt7__cxx1112basic_stringIcSt11char_traitsIcESaIcEED1Ev@PLT
	jmp	.L287
.L297:
	endbr64
	movq	%rax, %rbx
.L287:
	leaq	-161(%rbp), %rax
	movq	%rax, %rdi
	call	_ZNSaIcED1Ev@PLT
	movq	%rbx, %rax
	movq	%rax, %rdi
	call	_Unwind_Resume@PLT
.L304:
	endbr64
	movq	%rax, %rbx
	leaq	-96(%rbp), %rax
	movq	%rax, %rdi
	call	_ZN6LexemeD1Ev
	jmp	.L289
.L303:
	endbr64
	movq	%rax, %rbx
.L289:
	leaq	-160(%rbp), %rax
	movq	%rax, %rdi
	call	_ZNSt7__cxx1112basic_stringIcSt11char_traitsIcESaIcEED1Ev@PLT
	jmp	.L290
.L302:
	endbr64
	movq	%rax, %rbx
.L290:
	leaq	-162(%rbp), %rax
	movq	%rax, %rdi
	call	_ZNSaIcED1Ev@PLT
	leaq	-128(%rbp), %rax
	movq	%rax, %rdi
	call	_ZNSt7__cxx1112basic_stringIcSt11char_traitsIcESaIcEED1Ev@PLT
	jmp	.L291
.L301:
	endbr64
	movq	%rax, %rbx
.L291:
	leaq	-161(%rbp), %rax
	movq	%rax, %rdi
	call	_ZNSaIcED1Ev@PLT
	movq	%rbx, %rax
	movq	%rax, %rdi
	call	_Unwind_Resume@PLT
.LEHE44:
.L305:
	call	__stack_chk_fail@PLT
.L292:
	movq	-8(%rbp), %rbx
	leave
	.cfi_def_cfa 7, 8
	ret
	.cfi_endproc
.LFE5200:
	.section	.gcc_except_table
.LLSDA5200:
	.byte	0xff
	.byte	0xff
	.byte	0x1
	.uleb128 .LLSDACSE5200-.LLSDACSB5200
.LLSDACSB5200:
	.uleb128 .LEHB32-.LFB5200
	.uleb128 .LEHE32-.LEHB32
	.uleb128 .L293-.LFB5200
	.uleb128 0
	.uleb128 .LEHB33-.LFB5200
	.uleb128 .LEHE33-.LEHB33
	.uleb128 .L294-.LFB5200
	.uleb128 0
	.uleb128 .LEHB34-.LFB5200
	.uleb128 .LEHE34-.LEHB34
	.uleb128 .L295-.LFB5200
	.uleb128 0
	.uleb128 .LEHB35-.LFB5200
	.uleb128 .LEHE35-.LEHB35
	.uleb128 .L296-.LFB5200
	.uleb128 0
	.uleb128 .LEHB36-.LFB5200
	.uleb128 .LEHE36-.LEHB36
	.uleb128 .L297-.LFB5200
	.uleb128 0
	.uleb128 .LEHB37-.LFB5200
	.uleb128 .LEHE37-.LEHB37
	.uleb128 .L298-.LFB5200
	.uleb128 0
	.uleb128 .LEHB38-.LFB5200
	.uleb128 .LEHE38-.LEHB38
	.uleb128 .L299-.LFB5200
	.uleb128 0
	.uleb128 .LEHB39-.LFB5200
	.uleb128 .LEHE39-.LEHB39
	.uleb128 .L300-.LFB5200
	.uleb128 0
	.uleb128 .LEHB40-.LFB5200
	.uleb128 .LEHE40-.LEHB40
	.uleb128 .L301-.LFB5200
	.uleb128 0
	.uleb128 .LEHB41-.LFB5200
	.uleb128 .LEHE41-.LEHB41
	.uleb128 .L302-.LFB5200
	.uleb128 0
	.uleb128 .LEHB42-.LFB5200
	.uleb128 .LEHE42-.LEHB42
	.uleb128 .L303-.LFB5200
	.uleb128 0
	.uleb128 .LEHB43-.LFB5200
	.uleb128 .LEHE43-.LEHB43
	.uleb128 .L304-.LFB5200
	.uleb128 0
	.uleb128 .LEHB44-.LFB5200
	.uleb128 .LEHE44-.LEHB44
	.uleb128 0
	.uleb128 0
.LLSDACSE5200:
	.text
	.size	_Z14create_lexemesRSt6vectorI6LexemeSaIS0_EE, .-_Z14create_lexemesRSt6vectorI6LexemeSaIS0_EE
	.globl	_Z5_loopPFbR5TokenERSt6vectorIS_SaIS_EE
	.type	_Z5_loopPFbR5TokenERSt6vectorIS_SaIS_EE, @function
_Z5_loopPFbR5TokenERSt6vectorIS_SaIS_EE:
.LFB5204:
	.cfi_startproc
	.cfi_personality 0x9b,DW.ref.__gxx_personality_v0
	.cfi_lsda 0x1b,.LLSDA5204
	endbr64
	pushq	%rbp
	.cfi_def_cfa_offset 16
	.cfi_offset 6, -16
	movq	%rsp, %rbp
	.cfi_def_cfa_register 6
	pushq	%rbx
	subq	$136, %rsp
	.cfi_offset 3, -24
	movq	%rdi, -136(%rbp)
	movq	%rsi, -144(%rbp)
	movq	%fs:40, %rax
	movq	%rax, -24(%rbp)
	xorl	%eax, %eax
	leaq	-128(%rbp), %rax
	movq	%rax, %rdi
.LEHB45:
	call	_ZN5TokenC1Ev
.LEHE45:
	movq	-136(%rbp), %rdx
	leaq	-128(%rbp), %rax
	movq	%rax, %rdi
.LEHB46:
	call	*%rdx
	testb	%al, %al
	je	.L307
	movl	$1, %ebx
	jmp	.L308
.L307:
	leaq	-128(%rbp), %rdx
	movq	-144(%rbp), %rax
	movq	%rdx, %rsi
	movq	%rax, %rdi
	call	_ZNSt6vectorI5TokenSaIS0_EE9push_backERKS0_
	jmp	.L309
.L312:
	movq	-136(%rbp), %rdx
	leaq	-128(%rbp), %rax
	movq	%rax, %rdi
	call	*%rdx
	testb	%al, %al
	jne	.L318
	leaq	-128(%rbp), %rdx
	movq	-144(%rbp), %rax
	movq	%rdx, %rsi
	movq	%rax, %rdi
	call	_ZNSt6vectorI5TokenSaIS0_EE9push_backERKS0_
.LEHE46:
.L309:
	leaq	it_e(%rip), %rax
	movq	%rax, %rsi
	leaq	it(%rip), %rax
	movq	%rax, %rdi
	call	_ZN9__gnu_cxxneIP5TokenSt6vectorIS1_SaIS1_EEEEbRKNS_17__normal_iteratorIT_T0_EESB_
	testb	%al, %al
	jne	.L312
	jmp	.L311
.L318:
	nop
.L311:
	movl	$0, %ebx
.L308:
	leaq	-128(%rbp), %rax
	movq	%rax, %rdi
	call	_ZN5TokenD1Ev
	movl	%ebx, %eax
	movq	-24(%rbp), %rdx
	subq	%fs:40, %rdx
	je	.L315
	jmp	.L317
.L316:
	endbr64
	movq	%rax, %rbx
	leaq	-128(%rbp), %rax
	movq	%rax, %rdi
	call	_ZN5TokenD1Ev
	movq	%rbx, %rax
	movq	%rax, %rdi
.LEHB47:
	call	_Unwind_Resume@PLT
.LEHE47:
.L317:
	call	__stack_chk_fail@PLT
.L315:
	movq	-8(%rbp), %rbx
	leave
	.cfi_def_cfa 7, 8
	ret
	.cfi_endproc
.LFE5204:
	.section	.gcc_except_table
.LLSDA5204:
	.byte	0xff
	.byte	0xff
	.byte	0x1
	.uleb128 .LLSDACSE5204-.LLSDACSB5204
.LLSDACSB5204:
	.uleb128 .LEHB45-.LFB5204
	.uleb128 .LEHE45-.LEHB45
	.uleb128 0
	.uleb128 0
	.uleb128 .LEHB46-.LFB5204
	.uleb128 .LEHE46-.LEHB46
	.uleb128 .L316-.LFB5204
	.uleb128 0
	.uleb128 .LEHB47-.LFB5204
	.uleb128 .LEHE47-.LEHB47
	.uleb128 0
	.uleb128 0
.LLSDACSE5204:
	.text
	.size	_Z5_loopPFbR5TokenERSt6vectorIS_SaIS_EE, .-_Z5_loopPFbR5TokenERSt6vectorIS_SaIS_EE
	.section	.text._ZN5TokenaSERKS_,"axG",@progbits,_ZN5TokenaSERKS_,comdat
	.align 2
	.weak	_ZN5TokenaSERKS_
	.type	_ZN5TokenaSERKS_, @function
_ZN5TokenaSERKS_:
.LFB5206:
	.cfi_startproc
	endbr64
	pushq	%rbp
	.cfi_def_cfa_offset 16
	.cfi_offset 6, -16
	movq	%rsp, %rbp
	.cfi_def_cfa_register 6
	subq	$16, %rsp
	movq	%rdi, -8(%rbp)
	movq	%rsi, -16(%rbp)
	movq	-16(%rbp), %rdx
	movq	-8(%rbp), %rax
	movq	%rdx, %rsi
	movq	%rax, %rdi
	call	_ZNSt7__cxx1112basic_stringIcSt11char_traitsIcESaIcEEaSERKS4_@PLT
	movq	-16(%rbp), %rax
	leaq	32(%rax), %rdx
	movq	-8(%rbp), %rax
	addq	$32, %rax
	movq	%rdx, %rsi
	movq	%rax, %rdi
	call	_ZNSt7__cxx1112basic_stringIcSt11char_traitsIcESaIcEEaSERKS4_@PLT
	movq	-16(%rbp), %rax
	movl	64(%rax), %edx
	movq	-8(%rbp), %rax
	movl	%edx, 64(%rax)
	movq	-16(%rbp), %rax
	movl	68(%rax), %edx
	movq	-8(%rbp), %rax
	movl	%edx, 68(%rax)
	movq	-16(%rbp), %rax
	leaq	72(%rax), %rdx
	movq	-8(%rbp), %rax
	addq	$72, %rax
	movq	%rdx, %rsi
	movq	%rax, %rdi
	call	_ZNSt6vectorI5TokenSaIS0_EEaSERKS2_
	movq	-8(%rbp), %rax
	leave
	.cfi_def_cfa 7, 8
	ret
	.cfi_endproc
.LFE5206:
	.size	_ZN5TokenaSERKS_, .-_ZN5TokenaSERKS_
	.text
	.globl	_Z2__NSt7__cxx1112basic_stringIcSt11char_traitsIcESaIcEEER5Token
	.type	_Z2__NSt7__cxx1112basic_stringIcSt11char_traitsIcESaIcEEER5Token, @function
_Z2__NSt7__cxx1112basic_stringIcSt11char_traitsIcESaIcEEER5Token:
.LFB5205:
	.cfi_startproc
	endbr64
	pushq	%rbp
	.cfi_def_cfa_offset 16
	.cfi_offset 6, -16
	movq	%rsp, %rbp
	.cfi_def_cfa_register 6
	pushq	%rbx
	subq	$72, %rsp
	.cfi_offset 3, -24
	movq	%rdi, -72(%rbp)
	movq	%rsi, -80(%rbp)
	movq	%fs:40, %rax
	movq	%rax, -24(%rbp)
	xorl	%eax, %eax
	leaq	it_e(%rip), %rax
	movq	%rax, %rsi
	leaq	it(%rip), %rax
	movq	%rax, %rdi
	call	_ZN9__gnu_cxxeqIP5TokenSt6vectorIS1_SaIS1_EEEEbRKNS_17__normal_iteratorIT_T0_EESB_
	testb	%al, %al
	je	.L322
	movl	$1, %eax
	jmp	.L323
.L322:
	leaq	it(%rip), %rax
	movq	%rax, %rdi
	call	_ZNK9__gnu_cxx17__normal_iteratorIP5TokenSt6vectorIS1_SaIS1_EEEptEv
	movq	%rax, %rdx
	leaq	-64(%rbp), %rax
	movq	%rdx, %rsi
	movq	%rax, %rdi
	call	_ZN5Token5valueB5cxx11Ev
	movq	-72(%rbp), %rdx
	leaq	-64(%rbp), %rax
	movq	%rdx, %rsi
	movq	%rax, %rdi
	call	_ZStneIcSt11char_traitsIcESaIcEEbRKNSt7__cxx1112basic_stringIT_T0_T1_EESA_
	movl	%eax, %ebx
	leaq	-64(%rbp), %rax
	movq	%rax, %rdi
	call	_ZNSt7__cxx1112basic_stringIcSt11char_traitsIcESaIcEED1Ev@PLT
	testb	%bl, %bl
	je	.L324
	movl	$1, %eax
	jmp	.L323
.L324:
	leaq	it(%rip), %rax
	movq	%rax, %rdi
	call	_ZNK9__gnu_cxx17__normal_iteratorIP5TokenSt6vectorIS1_SaIS1_EEEdeEv
	movq	%rax, %rdx
	movq	-80(%rbp), %rax
	movq	%rdx, %rsi
	movq	%rax, %rdi
	call	_ZN5TokenaSERKS_
	movl	$0, %esi
	leaq	it(%rip), %rax
	movq	%rax, %rdi
	call	_ZN9__gnu_cxx17__normal_iteratorIP5TokenSt6vectorIS1_SaIS1_EEEppEi
	movl	$0, %eax
.L323:
	movq	-24(%rbp), %rdx
	subq	%fs:40, %rdx
	je	.L325
	call	__stack_chk_fail@PLT
.L325:
	movq	-8(%rbp), %rbx
	leave
	.cfi_def_cfa 7, 8
	ret
	.cfi_endproc
.LFE5205:
	.size	_Z2__NSt7__cxx1112basic_stringIcSt11char_traitsIcESaIcEEER5Token, .-_Z2__NSt7__cxx1112basic_stringIcSt11char_traitsIcESaIcEEER5Token
	.globl	_Z5__intR5Token
	.type	_Z5__intR5Token, @function
_Z5__intR5Token:
.LFB5207:
	.cfi_startproc
	endbr64
	pushq	%rbp
	.cfi_def_cfa_offset 16
	.cfi_offset 6, -16
	movq	%rsp, %rbp
	.cfi_def_cfa_register 6
	pushq	%rbx
	subq	$72, %rsp
	.cfi_offset 3, -24
	movq	%rdi, -72(%rbp)
	movq	%fs:40, %rax
	movq	%rax, -24(%rbp)
	xorl	%eax, %eax
	leaq	it_e(%rip), %rax
	movq	%rax, %rsi
	leaq	it(%rip), %rax
	movq	%rax, %rdi
	call	_ZN9__gnu_cxxeqIP5TokenSt6vectorIS1_SaIS1_EEEEbRKNS_17__normal_iteratorIT_T0_EESB_
	testb	%al, %al
	je	.L327
	movl	$1, %eax
	jmp	.L328
.L327:
	leaq	it(%rip), %rax
	movq	%rax, %rdi
	call	_ZNK9__gnu_cxx17__normal_iteratorIP5TokenSt6vectorIS1_SaIS1_EEEptEv
	movq	%rax, %rdx
	leaq	-64(%rbp), %rax
	movq	%rdx, %rsi
	movq	%rax, %rdi
	call	_ZN5Token4typeB5cxx11Ev
	leaq	-64(%rbp), %rax
	leaq	.LC18(%rip), %rdx
	movq	%rdx, %rsi
	movq	%rax, %rdi
	call	_ZStneIcSt11char_traitsIcESaIcEEbRKNSt7__cxx1112basic_stringIT_T0_T1_EEPKS5_
	movl	%eax, %ebx
	leaq	-64(%rbp), %rax
	movq	%rax, %rdi
	call	_ZNSt7__cxx1112basic_stringIcSt11char_traitsIcESaIcEED1Ev@PLT
	testb	%bl, %bl
	je	.L329
	movl	$1, %eax
	jmp	.L328
.L329:
	leaq	it(%rip), %rax
	movq	%rax, %rdi
	call	_ZNK9__gnu_cxx17__normal_iteratorIP5TokenSt6vectorIS1_SaIS1_EEEdeEv
	movq	%rax, %rdx
	movq	-72(%rbp), %rax
	movq	%rdx, %rsi
	movq	%rax, %rdi
	call	_ZN5TokenaSERKS_
	movl	$0, %esi
	leaq	it(%rip), %rax
	movq	%rax, %rdi
	call	_ZN9__gnu_cxx17__normal_iteratorIP5TokenSt6vectorIS1_SaIS1_EEEppEi
	movl	$0, %eax
.L328:
	movq	-24(%rbp), %rdx
	subq	%fs:40, %rdx
	je	.L330
	call	__stack_chk_fail@PLT
.L330:
	movq	-8(%rbp), %rbx
	leave
	.cfi_def_cfa 7, 8
	ret
	.cfi_endproc
.LFE5207:
	.size	_Z5__intR5Token, .-_Z5__intR5Token
	.section	.text._ZN5TokenaSEOS_,"axG",@progbits,_ZN5TokenaSEOS_,comdat
	.align 2
	.weak	_ZN5TokenaSEOS_
	.type	_ZN5TokenaSEOS_, @function
_ZN5TokenaSEOS_:
.LFB5209:
	.cfi_startproc
	endbr64
	pushq	%rbp
	.cfi_def_cfa_offset 16
	.cfi_offset 6, -16
	movq	%rsp, %rbp
	.cfi_def_cfa_register 6
	subq	$16, %rsp
	movq	%rdi, -8(%rbp)
	movq	%rsi, -16(%rbp)
	movq	-16(%rbp), %rdx
	movq	-8(%rbp), %rax
	movq	%rdx, %rsi
	movq	%rax, %rdi
	call	_ZNSt7__cxx1112basic_stringIcSt11char_traitsIcESaIcEEaSEOS4_@PLT
	movq	-16(%rbp), %rax
	leaq	32(%rax), %rdx
	movq	-8(%rbp), %rax
	addq	$32, %rax
	movq	%rdx, %rsi
	movq	%rax, %rdi
	call	_ZNSt7__cxx1112basic_stringIcSt11char_traitsIcESaIcEEaSEOS4_@PLT
	movq	-16(%rbp), %rax
	movl	64(%rax), %edx
	movq	-8(%rbp), %rax
	movl	%edx, 64(%rax)
	movq	-16(%rbp), %rax
	movl	68(%rax), %edx
	movq	-8(%rbp), %rax
	movl	%edx, 68(%rax)
	movq	-16(%rbp), %rax
	leaq	72(%rax), %rdx
	movq	-8(%rbp), %rax
	addq	$72, %rax
	movq	%rdx, %rsi
	movq	%rax, %rdi
	call	_ZNSt6vectorI5TokenSaIS0_EEaSEOS2_
	movq	-8(%rbp), %rax
	leave
	.cfi_def_cfa 7, 8
	ret
	.cfi_endproc
.LFE5209:
	.size	_ZN5TokenaSEOS_, .-_ZN5TokenaSEOS_
	.section	.rodata
.LC22:
	.string	"program"
	.text
	.globl	_Z9__programR5Token
	.type	_Z9__programR5Token, @function
_Z9__programR5Token:
.LFB5208:
	.cfi_startproc
	.cfi_personality 0x9b,DW.ref.__gxx_personality_v0
	.cfi_lsda 0x1b,.LLSDA5208
	endbr64
	pushq	%rbp
	.cfi_def_cfa_offset 16
	.cfi_offset 6, -16
	movq	%rsp, %rbp
	.cfi_def_cfa_register 6
	pushq	%rbx
	subq	$248, %rsp
	.cfi_offset 3, -24
	movq	%rdi, -248(%rbp)
	movq	%fs:40, %rax
	movq	%rax, -24(%rbp)
	xorl	%eax, %eax
	movq	it(%rip), %rax
	movq	%rax, -232(%rbp)
	leaq	-192(%rbp), %rax
	movq	%rax, %rdi
	call	_ZNSaIcEC1Ev@PLT
	leaq	-192(%rbp), %rdx
	leaq	-160(%rbp), %rax
	leaq	.LC22(%rip), %rcx
	movq	%rcx, %rsi
	movq	%rax, %rdi
.LEHB48:
	call	_ZNSt7__cxx1112basic_stringIcSt11char_traitsIcESaIcEEC1IS3_EEPKcRKS3_
.LEHE48:
	leaq	-160(%rbp), %rdx
	leaq	-128(%rbp), %rax
	movq	%rdx, %rsi
	movq	%rax, %rdi
.LEHB49:
	call	_ZN5TokenC1ENSt7__cxx1112basic_stringIcSt11char_traitsIcESaIcEEE
.LEHE49:
	leaq	-128(%rbp), %rdx
	movq	-248(%rbp), %rax
	movq	%rdx, %rsi
	movq	%rax, %rdi
	call	_ZN5TokenaSEOS_
	leaq	-128(%rbp), %rax
	movq	%rax, %rdi
	call	_ZN5TokenD1Ev
	leaq	-160(%rbp), %rax
	movq	%rax, %rdi
	call	_ZNSt7__cxx1112basic_stringIcSt11char_traitsIcESaIcEED1Ev@PLT
	leaq	-192(%rbp), %rax
	movq	%rax, %rdi
	call	_ZNSaIcED1Ev@PLT
	leaq	-224(%rbp), %rax
	movq	%rax, %rdi
	call	_ZNSt6vectorI5TokenSaIS0_EEC1Ev
	movq	$0, -192(%rbp)
	movq	$0, -184(%rbp)
	movq	$0, -176(%rbp)
	leaq	-192(%rbp), %rax
	movq	%rax, %rdi
	call	_ZNSt6vectorI5TokenSaIS0_EEC1Ev
	leaq	-192(%rbp), %rdx
	leaq	-224(%rbp), %rax
	movq	%rdx, %rsi
	movq	%rax, %rdi
	call	_ZNSt6vectorI5TokenSaIS0_EEaSEOS2_
	leaq	-192(%rbp), %rax
	movq	%rax, %rdi
	call	_ZNSt6vectorI5TokenSaIS0_EED1Ev
	leaq	-224(%rbp), %rax
	movq	%rax, %rdi
.LEHB50:
	call	_Z4nextI5TokenERT_RSt6vectorIS1_SaIS1_EE
	movq	%rax, %rdi
	call	_Z5__intR5Token
	testb	%al, %al
	jne	.L334
	leaq	-224(%rbp), %rax
	movq	%rax, %rsi
	leaq	_Z5__intR5Token(%rip), %rax
	movq	%rax, %rdi
	call	_Z5_loopPFbR5TokenERSt6vectorIS_SaIS_EE
	testb	%al, %al
	je	.L335
.L334:
	movl	$1, %eax
	jmp	.L336
.L335:
	movl	$0, %eax
.L336:
	testb	%al, %al
	je	.L337
	movq	-232(%rbp), %rax
	movq	%rax, it(%rip)
	movl	$1, %ebx
	jmp	.L339
.L337:
	leaq	-224(%rbp), %rdx
	movq	-248(%rbp), %rax
	movq	%rdx, %rsi
	movq	%rax, %rdi
	call	_ZN5Token4pushERSt6vectorIS_SaIS_EE
.LEHE50:
	movl	$0, %ebx
.L339:
	leaq	-224(%rbp), %rax
	movq	%rax, %rdi
	call	_ZNSt6vectorI5TokenSaIS0_EED1Ev
	movl	%ebx, %eax
	movq	-24(%rbp), %rdx
	subq	%fs:40, %rdx
	je	.L344
	jmp	.L348
.L346:
	endbr64
	movq	%rax, %rbx
	leaq	-160(%rbp), %rax
	movq	%rax, %rdi
	call	_ZNSt7__cxx1112basic_stringIcSt11char_traitsIcESaIcEED1Ev@PLT
	jmp	.L342
.L345:
	endbr64
	movq	%rax, %rbx
.L342:
	leaq	-192(%rbp), %rax
	movq	%rax, %rdi
	call	_ZNSaIcED1Ev@PLT
	movq	%rbx, %rax
	movq	%rax, %rdi
.LEHB51:
	call	_Unwind_Resume@PLT
.L347:
	endbr64
	movq	%rax, %rbx
	leaq	-224(%rbp), %rax
	movq	%rax, %rdi
	call	_ZNSt6vectorI5TokenSaIS0_EED1Ev
	movq	%rbx, %rax
	movq	%rax, %rdi
	call	_Unwind_Resume@PLT
.LEHE51:
.L348:
	call	__stack_chk_fail@PLT
.L344:
	movq	-8(%rbp), %rbx
	leave
	.cfi_def_cfa 7, 8
	ret
	.cfi_endproc
.LFE5208:
	.section	.gcc_except_table
.LLSDA5208:
	.byte	0xff
	.byte	0xff
	.byte	0x1
	.uleb128 .LLSDACSE5208-.LLSDACSB5208
.LLSDACSB5208:
	.uleb128 .LEHB48-.LFB5208
	.uleb128 .LEHE48-.LEHB48
	.uleb128 .L345-.LFB5208
	.uleb128 0
	.uleb128 .LEHB49-.LFB5208
	.uleb128 .LEHE49-.LEHB49
	.uleb128 .L346-.LFB5208
	.uleb128 0
	.uleb128 .LEHB50-.LFB5208
	.uleb128 .LEHE50-.LEHB50
	.uleb128 .L347-.LFB5208
	.uleb128 0
	.uleb128 .LEHB51-.LFB5208
	.uleb128 .LEHE51-.LEHB51
	.uleb128 0
	.uleb128 0
.LLSDACSE5208:
	.text
	.size	_Z9__programR5Token, .-_Z9__programR5Token
	.section	.rodata
.LC23:
	.string	"1 2\n\n3 4 55 666 7787"
.LC24:
	.string	"OK"
	.text
	.globl	main
	.type	main, @function
main:
.LFB5210:
	.cfi_startproc
	.cfi_personality 0x9b,DW.ref.__gxx_personality_v0
	.cfi_lsda 0x1b,.LLSDA5210
	endbr64
	pushq	%rbp
	.cfi_def_cfa_offset 16
	.cfi_offset 6, -16
	movq	%rsp, %rbp
	.cfi_def_cfa_register 6
	pushq	%rbx
	subq	$184, %rsp
	.cfi_offset 3, -24
	movq	%fs:40, %rax
	movq	%rax, -24(%rbp)
	xorl	%eax, %eax
	leaq	-160(%rbp), %rax
	movq	%rax, %rdi
	call	_ZNSt7__cxx1112basic_stringIcSt11char_traitsIcESaIcEEC1Ev@PLT
	leaq	-160(%rbp), %rax
	leaq	.LC23(%rip), %rdx
	movq	%rdx, %rsi
	movq	%rax, %rdi
.LEHB52:
	call	_ZNSt7__cxx1112basic_stringIcSt11char_traitsIcESaIcEEaSEPKc@PLT
	leaq	-160(%rbp), %rdx
	leaq	-128(%rbp), %rax
	movq	%rdx, %rsi
	movq	%rax, %rdi
	call	_ZNSt7__cxx1112basic_stringIcSt11char_traitsIcESaIcEEC1ERKS4_@PLT
.LEHE52:
	leaq	-192(%rbp), %rax
	leaq	-128(%rbp), %rdx
	movq	%rdx, %rsi
	movq	%rax, %rdi
.LEHB53:
	call	_Z3lexNSt7__cxx1112basic_stringIcSt11char_traitsIcESaIcEEE
.LEHE53:
	leaq	-128(%rbp), %rax
	movq	%rax, %rdi
	call	_ZNSt7__cxx1112basic_stringIcSt11char_traitsIcESaIcEED1Ev@PLT
	leaq	-192(%rbp), %rax
	movq	%rax, %rdi
	call	_ZNSt6vectorI5TokenSaIS0_EE5beginEv
	movq	%rax, it(%rip)
	leaq	-192(%rbp), %rax
	movq	%rax, %rdi
	call	_ZNSt6vectorI5TokenSaIS0_EE3endEv
	movq	%rax, it_e(%rip)
	leaq	-128(%rbp), %rax
	movq	%rax, %rdi
.LEHB54:
	call	_ZN5TokenC1Ev
.LEHE54:
	leaq	-128(%rbp), %rax
	movq	%rax, %rdi
.LEHB55:
	call	_Z9__programR5Token
	testb	%al, %al
	je	.L350
	leaq	.LC16(%rip), %rax
	movq	%rax, %rsi
	leaq	_ZSt4cout(%rip), %rax
	movq	%rax, %rdi
	call	_ZStlsISt11char_traitsIcEERSt13basic_ostreamIcT_ES5_PKc@PLT
	movq	_ZSt4endlIcSt11char_traitsIcEERSt13basic_ostreamIT_T0_ES6_@GOTPCREL(%rip), %rdx
	movq	%rdx, %rsi
	movq	%rax, %rdi
	call	_ZNSolsEPFRSoS_E@PLT
	jmp	.L351
.L350:
	leaq	.LC24(%rip), %rax
	movq	%rax, %rsi
	leaq	_ZSt4cout(%rip), %rax
	movq	%rax, %rdi
	call	_ZStlsISt11char_traitsIcEERSt13basic_ostreamIcT_ES5_PKc@PLT
	movq	_ZSt4endlIcSt11char_traitsIcEERSt13basic_ostreamIT_T0_ES6_@GOTPCREL(%rip), %rdx
	movq	%rdx, %rsi
	movq	%rax, %rdi
	call	_ZNSolsEPFRSoS_E@PLT
	leaq	-128(%rbp), %rax
	movq	%rax, %rsi
	leaq	_ZSt4cout(%rip), %rax
	movq	%rax, %rdi
	call	_ZlsRSoR5Token
	movq	_ZSt4endlIcSt11char_traitsIcEERSt13basic_ostreamIT_T0_ES6_@GOTPCREL(%rip), %rdx
	movq	%rdx, %rsi
	movq	%rax, %rdi
	call	_ZNSolsEPFRSoS_E@PLT
.LEHE55:
.L351:
	movl	$0, %ebx
	leaq	-128(%rbp), %rax
	movq	%rax, %rdi
	call	_ZN5TokenD1Ev
	leaq	-192(%rbp), %rax
	movq	%rax, %rdi
	call	_ZNSt6vectorI5TokenSaIS0_EED1Ev
	leaq	-160(%rbp), %rax
	movq	%rax, %rdi
	call	_ZNSt7__cxx1112basic_stringIcSt11char_traitsIcESaIcEED1Ev@PLT
	movl	%ebx, %eax
	movq	-24(%rbp), %rdx
	subq	%fs:40, %rdx
	je	.L357
	jmp	.L362
.L359:
	endbr64
	movq	%rax, %rbx
	leaq	-128(%rbp), %rax
	movq	%rax, %rdi
	call	_ZNSt7__cxx1112basic_stringIcSt11char_traitsIcESaIcEED1Ev@PLT
	jmp	.L354
.L361:
	endbr64
	movq	%rax, %rbx
	leaq	-128(%rbp), %rax
	movq	%rax, %rdi
	call	_ZN5TokenD1Ev
	jmp	.L356
.L360:
	endbr64
	movq	%rax, %rbx
.L356:
	leaq	-192(%rbp), %rax
	movq	%rax, %rdi
	call	_ZNSt6vectorI5TokenSaIS0_EED1Ev
	jmp	.L354
.L358:
	endbr64
	movq	%rax, %rbx
.L354:
	leaq	-160(%rbp), %rax
	movq	%rax, %rdi
	call	_ZNSt7__cxx1112basic_stringIcSt11char_traitsIcESaIcEED1Ev@PLT
	movq	%rbx, %rax
	movq	%rax, %rdi
.LEHB56:
	call	_Unwind_Resume@PLT
.LEHE56:
.L362:
	call	__stack_chk_fail@PLT
.L357:
	movq	-8(%rbp), %rbx
	leave
	.cfi_def_cfa 7, 8
	ret
	.cfi_endproc
.LFE5210:
	.section	.gcc_except_table
.LLSDA5210:
	.byte	0xff
	.byte	0xff
	.byte	0x1
	.uleb128 .LLSDACSE5210-.LLSDACSB5210
.LLSDACSB5210:
	.uleb128 .LEHB52-.LFB5210
	.uleb128 .LEHE52-.LEHB52
	.uleb128 .L358-.LFB5210
	.uleb128 0
	.uleb128 .LEHB53-.LFB5210
	.uleb128 .LEHE53-.LEHB53
	.uleb128 .L359-.LFB5210
	.uleb128 0
	.uleb128 .LEHB54-.LFB5210
	.uleb128 .LEHE54-.LEHB54
	.uleb128 .L360-.LFB5210
	.uleb128 0
	.uleb128 .LEHB55-.LFB5210
	.uleb128 .LEHE55-.LEHB55
	.uleb128 .L361-.LFB5210
	.uleb128 0
	.uleb128 .LEHB56-.LFB5210
	.uleb128 .LEHE56-.LEHB56
	.uleb128 0
	.uleb128 0
.LLSDACSE5210:
	.text
	.size	main, .-main
	.section	.text._ZN9__gnu_cxx11char_traitsIcE2eqERKcS3_,"axG",@progbits,_ZN9__gnu_cxx11char_traitsIcE2eqERKcS3_,comdat
	.weak	_ZN9__gnu_cxx11char_traitsIcE2eqERKcS3_
	.type	_ZN9__gnu_cxx11char_traitsIcE2eqERKcS3_, @function
_ZN9__gnu_cxx11char_traitsIcE2eqERKcS3_:
.LFB5212:
	.cfi_startproc
	endbr64
	pushq	%rbp
	.cfi_def_cfa_offset 16
	.cfi_offset 6, -16
	movq	%rsp, %rbp
	.cfi_def_cfa_register 6
	movq	%rdi, -8(%rbp)
	movq	%rsi, -16(%rbp)
	movq	-8(%rbp), %rax
	movzbl	(%rax), %edx
	movq	-16(%rbp), %rax
	movzbl	(%rax), %eax
	cmpb	%al, %dl
	sete	%al
	popq	%rbp
	.cfi_def_cfa 7, 8
	ret
	.cfi_endproc
.LFE5212:
	.size	_ZN9__gnu_cxx11char_traitsIcE2eqERKcS3_, .-_ZN9__gnu_cxx11char_traitsIcE2eqERKcS3_
	.section	.text._ZN9__gnu_cxx11char_traitsIcE6lengthEPKc,"axG",@progbits,_ZN9__gnu_cxx11char_traitsIcE6lengthEPKc,comdat
	.align 2
	.weak	_ZN9__gnu_cxx11char_traitsIcE6lengthEPKc
	.type	_ZN9__gnu_cxx11char_traitsIcE6lengthEPKc, @function
_ZN9__gnu_cxx11char_traitsIcE6lengthEPKc:
.LFB5211:
	.cfi_startproc
	endbr64
	pushq	%rbp
	.cfi_def_cfa_offset 16
	.cfi_offset 6, -16
	movq	%rsp, %rbp
	.cfi_def_cfa_register 6
	subq	$48, %rsp
	movq	%rdi, -40(%rbp)
	movq	%fs:40, %rax
	movq	%rax, -8(%rbp)
	xorl	%eax, %eax
	movq	$0, -16(%rbp)
	jmp	.L366
.L367:
	addq	$1, -16(%rbp)
.L366:
	movb	$0, -17(%rbp)
	movq	-40(%rbp), %rdx
	movq	-16(%rbp), %rax
	addq	%rax, %rdx
	leaq	-17(%rbp), %rax
	movq	%rax, %rsi
	movq	%rdx, %rdi
	call	_ZN9__gnu_cxx11char_traitsIcE2eqERKcS3_
	xorl	$1, %eax
	testb	%al, %al
	jne	.L367
	movq	-16(%rbp), %rax
	movq	-8(%rbp), %rdx
	subq	%fs:40, %rdx
	je	.L369
	call	__stack_chk_fail@PLT
.L369:
	leave
	.cfi_def_cfa 7, 8
	ret
	.cfi_endproc
.LFE5211:
	.size	_ZN9__gnu_cxx11char_traitsIcE6lengthEPKc, .-_ZN9__gnu_cxx11char_traitsIcE6lengthEPKc
	.section	.text._ZNSt7__cxx1112basic_stringIcSt11char_traitsIcESaIcEE12_Alloc_hiderD2Ev,"axG",@progbits,_ZNSt7__cxx1112basic_stringIcSt11char_traitsIcESaIcEE12_Alloc_hiderD5Ev,comdat
	.align 2
	.weak	_ZNSt7__cxx1112basic_stringIcSt11char_traitsIcESaIcEE12_Alloc_hiderD2Ev
	.type	_ZNSt7__cxx1112basic_stringIcSt11char_traitsIcESaIcEE12_Alloc_hiderD2Ev, @function
_ZNSt7__cxx1112basic_stringIcSt11char_traitsIcESaIcEE12_Alloc_hiderD2Ev:
.LFB5319:
	.cfi_startproc
	endbr64
	pushq	%rbp
	.cfi_def_cfa_offset 16
	.cfi_offset 6, -16
	movq	%rsp, %rbp
	.cfi_def_cfa_register 6
	subq	$16, %rsp
	movq	%rdi, -8(%rbp)
	movq	-8(%rbp), %rax
	movq	%rax, %rdi
	call	_ZNSaIcED2Ev@PLT
	nop
	leave
	.cfi_def_cfa 7, 8
	ret
	.cfi_endproc
.LFE5319:
	.size	_ZNSt7__cxx1112basic_stringIcSt11char_traitsIcESaIcEE12_Alloc_hiderD2Ev, .-_ZNSt7__cxx1112basic_stringIcSt11char_traitsIcESaIcEE12_Alloc_hiderD2Ev
	.weak	_ZNSt7__cxx1112basic_stringIcSt11char_traitsIcESaIcEE12_Alloc_hiderD1Ev
	.set	_ZNSt7__cxx1112basic_stringIcSt11char_traitsIcESaIcEE12_Alloc_hiderD1Ev,_ZNSt7__cxx1112basic_stringIcSt11char_traitsIcESaIcEE12_Alloc_hiderD2Ev
	.section	.text._ZNSt7__cxx1112basic_stringIcSt11char_traitsIcESaIcEEC2IS3_EEmcRKS3_,"axG",@progbits,_ZNSt7__cxx1112basic_stringIcSt11char_traitsIcESaIcEEC5IS3_EEmcRKS3_,comdat
	.align 2
	.weak	_ZNSt7__cxx1112basic_stringIcSt11char_traitsIcESaIcEEC2IS3_EEmcRKS3_
	.type	_ZNSt7__cxx1112basic_stringIcSt11char_traitsIcESaIcEEC2IS3_EEmcRKS3_, @function
_ZNSt7__cxx1112basic_stringIcSt11char_traitsIcESaIcEEC2IS3_EEmcRKS3_:
.LFB5321:
	.cfi_startproc
	.cfi_personality 0x9b,DW.ref.__gxx_personality_v0
	.cfi_lsda 0x1b,.LLSDA5321
	endbr64
	pushq	%rbp
	.cfi_def_cfa_offset 16
	.cfi_offset 6, -16
	movq	%rsp, %rbp
	.cfi_def_cfa_register 6
	pushq	%rbx
	subq	$40, %rsp
	.cfi_offset 3, -24
	movq	%rdi, -24(%rbp)
	movq	%rsi, -32(%rbp)
	movl	%edx, %eax
	movq	%rcx, -48(%rbp)
	movb	%al, -36(%rbp)
	movq	-24(%rbp), %rbx
	movq	-24(%rbp), %rax
	movq	%rax, %rdi
.LEHB57:
	call	_ZNSt7__cxx1112basic_stringIcSt11char_traitsIcESaIcEE13_M_local_dataEv@PLT
	movq	%rax, %rcx
	movq	-48(%rbp), %rax
	movq	%rax, %rdx
	movq	%rcx, %rsi
	movq	%rbx, %rdi
	call	_ZNSt7__cxx1112basic_stringIcSt11char_traitsIcESaIcEE12_Alloc_hiderC1EPcRKS3_@PLT
.LEHE57:
	movsbl	-36(%rbp), %edx
	movq	-32(%rbp), %rcx
	movq	-24(%rbp), %rax
	movq	%rcx, %rsi
	movq	%rax, %rdi
.LEHB58:
	call	_ZNSt7__cxx1112basic_stringIcSt11char_traitsIcESaIcEE12_M_constructEmc@PLT
.LEHE58:
	jmp	.L374
.L373:
	endbr64
	movq	%rax, %rbx
	movq	-24(%rbp), %rax
	movq	%rax, %rdi
	call	_ZNSt7__cxx1112basic_stringIcSt11char_traitsIcESaIcEE12_Alloc_hiderD1Ev
	movq	%rbx, %rax
	movq	%rax, %rdi
.LEHB59:
	call	_Unwind_Resume@PLT
.LEHE59:
.L374:
	movq	-8(%rbp), %rbx
	leave
	.cfi_def_cfa 7, 8
	ret
	.cfi_endproc
.LFE5321:
	.section	.gcc_except_table
.LLSDA5321:
	.byte	0xff
	.byte	0xff
	.byte	0x1
	.uleb128 .LLSDACSE5321-.LLSDACSB5321
.LLSDACSB5321:
	.uleb128 .LEHB57-.LFB5321
	.uleb128 .LEHE57-.LEHB57
	.uleb128 0
	.uleb128 0
	.uleb128 .LEHB58-.LFB5321
	.uleb128 .LEHE58-.LEHB58
	.uleb128 .L373-.LFB5321
	.uleb128 0
	.uleb128 .LEHB59-.LFB5321
	.uleb128 .LEHE59-.LEHB59
	.uleb128 0
	.uleb128 0
.LLSDACSE5321:
	.section	.text._ZNSt7__cxx1112basic_stringIcSt11char_traitsIcESaIcEEC2IS3_EEmcRKS3_,"axG",@progbits,_ZNSt7__cxx1112basic_stringIcSt11char_traitsIcESaIcEEC5IS3_EEmcRKS3_,comdat
	.size	_ZNSt7__cxx1112basic_stringIcSt11char_traitsIcESaIcEEC2IS3_EEmcRKS3_, .-_ZNSt7__cxx1112basic_stringIcSt11char_traitsIcESaIcEEC2IS3_EEmcRKS3_
	.weak	_ZNSt7__cxx1112basic_stringIcSt11char_traitsIcESaIcEEC1IS3_EEmcRKS3_
	.set	_ZNSt7__cxx1112basic_stringIcSt11char_traitsIcESaIcEEC1IS3_EEmcRKS3_,_ZNSt7__cxx1112basic_stringIcSt11char_traitsIcESaIcEEC2IS3_EEmcRKS3_
	.section	.text._ZSt3maxImERKT_S2_S2_,"axG",@progbits,_ZSt3maxImERKT_S2_S2_,comdat
	.weak	_ZSt3maxImERKT_S2_S2_
	.type	_ZSt3maxImERKT_S2_S2_, @function
_ZSt3maxImERKT_S2_S2_:
.LFB5471:
	.cfi_startproc
	endbr64
	pushq	%rbp
	.cfi_def_cfa_offset 16
	.cfi_offset 6, -16
	movq	%rsp, %rbp
	.cfi_def_cfa_register 6
	movq	%rdi, -8(%rbp)
	movq	%rsi, -16(%rbp)
	movq	-8(%rbp), %rax
	movq	(%rax), %rdx
	movq	-16(%rbp), %rax
	movq	(%rax), %rax
	cmpq	%rax, %rdx
	jnb	.L376
	movq	-16(%rbp), %rax
	jmp	.L377
.L376:
	movq	-8(%rbp), %rax
.L377:
	popq	%rbp
	.cfi_def_cfa 7, 8
	ret
	.cfi_endproc
.LFE5471:
	.size	_ZSt3maxImERKT_S2_S2_, .-_ZSt3maxImERKT_S2_S2_
	.section	.text._ZNSt12_Vector_baseImSaImEE12_Vector_implC2Ev,"axG",@progbits,_ZNSt12_Vector_baseImSaImEE12_Vector_implC5Ev,comdat
	.align 2
	.weak	_ZNSt12_Vector_baseImSaImEE12_Vector_implC2Ev
	.type	_ZNSt12_Vector_baseImSaImEE12_Vector_implC2Ev, @function
_ZNSt12_Vector_baseImSaImEE12_Vector_implC2Ev:
.LFB5496:
	.cfi_startproc
	endbr64
	pushq	%rbp
	.cfi_def_cfa_offset 16
	.cfi_offset 6, -16
	movq	%rsp, %rbp
	.cfi_def_cfa_register 6
	subq	$16, %rsp
	movq	%rdi, -8(%rbp)
	movq	-8(%rbp), %rax
	movq	%rax, %rdi
	call	_ZNSaImEC2Ev
	movq	-8(%rbp), %rax
	movq	%rax, %rdi
	call	_ZNSt12_Vector_baseImSaImEE17_Vector_impl_dataC2Ev
	nop
	leave
	.cfi_def_cfa 7, 8
	ret
	.cfi_endproc
.LFE5496:
	.size	_ZNSt12_Vector_baseImSaImEE12_Vector_implC2Ev, .-_ZNSt12_Vector_baseImSaImEE12_Vector_implC2Ev
	.weak	_ZNSt12_Vector_baseImSaImEE12_Vector_implC1Ev
	.set	_ZNSt12_Vector_baseImSaImEE12_Vector_implC1Ev,_ZNSt12_Vector_baseImSaImEE12_Vector_implC2Ev
	.section	.text._ZNSaImED2Ev,"axG",@progbits,_ZNSaImED5Ev,comdat
	.align 2
	.weak	_ZNSaImED2Ev
	.type	_ZNSaImED2Ev, @function
_ZNSaImED2Ev:
.LFB5499:
	.cfi_startproc
	endbr64
	pushq	%rbp
	.cfi_def_cfa_offset 16
	.cfi_offset 6, -16
	movq	%rsp, %rbp
	.cfi_def_cfa_register 6
	subq	$16, %rsp
	movq	%rdi, -8(%rbp)
	movq	-8(%rbp), %rax
	movq	%rax, %rdi
	call	_ZN9__gnu_cxx13new_allocatorImED2Ev
	nop
	leave
	.cfi_def_cfa 7, 8
	ret
	.cfi_endproc
.LFE5499:
	.size	_ZNSaImED2Ev, .-_ZNSaImED2Ev
	.weak	_ZNSaImED1Ev
	.set	_ZNSaImED1Ev,_ZNSaImED2Ev
	.section	.text._ZNSt12_Vector_baseImSaImEED2Ev,"axG",@progbits,_ZNSt12_Vector_baseImSaImEED5Ev,comdat
	.align 2
	.weak	_ZNSt12_Vector_baseImSaImEED2Ev
	.type	_ZNSt12_Vector_baseImSaImEED2Ev, @function
_ZNSt12_Vector_baseImSaImEED2Ev:
.LFB5502:
	.cfi_startproc
	.cfi_personality 0x9b,DW.ref.__gxx_personality_v0
	.cfi_lsda 0x1b,.LLSDA5502
	endbr64
	pushq	%rbp
	.cfi_def_cfa_offset 16
	.cfi_offset 6, -16
	movq	%rsp, %rbp
	.cfi_def_cfa_register 6
	subq	$16, %rsp
	movq	%rdi, -8(%rbp)
	movq	-8(%rbp), %rax
	movq	16(%rax), %rdx
	movq	-8(%rbp), %rax
	movq	(%rax), %rcx
	movq	%rdx, %rax
	subq	%rcx, %rax
	sarq	$3, %rax
	movq	%rax, %rdx
	movq	-8(%rbp), %rax
	movq	(%rax), %rcx
	movq	-8(%rbp), %rax
	movq	%rcx, %rsi
	movq	%rax, %rdi
	call	_ZNSt12_Vector_baseImSaImEE13_M_deallocateEPmm
	movq	-8(%rbp), %rax
	movq	%rax, %rdi
	call	_ZNSt12_Vector_baseImSaImEE12_Vector_implD1Ev
	nop
	leave
	.cfi_def_cfa 7, 8
	ret
	.cfi_endproc
.LFE5502:
	.section	.gcc_except_table
.LLSDA5502:
	.byte	0xff
	.byte	0xff
	.byte	0x1
	.uleb128 .LLSDACSE5502-.LLSDACSB5502
.LLSDACSB5502:
.LLSDACSE5502:
	.section	.text._ZNSt12_Vector_baseImSaImEED2Ev,"axG",@progbits,_ZNSt12_Vector_baseImSaImEED5Ev,comdat
	.size	_ZNSt12_Vector_baseImSaImEED2Ev, .-_ZNSt12_Vector_baseImSaImEED2Ev
	.weak	_ZNSt12_Vector_baseImSaImEED1Ev
	.set	_ZNSt12_Vector_baseImSaImEED1Ev,_ZNSt12_Vector_baseImSaImEED2Ev
	.section	.text._ZNSt6vectorImSaImEED2Ev,"axG",@progbits,_ZNSt6vectorImSaImEED5Ev,comdat
	.align 2
	.weak	_ZNSt6vectorImSaImEED2Ev
	.type	_ZNSt6vectorImSaImEED2Ev, @function
_ZNSt6vectorImSaImEED2Ev:
.LFB5505:
	.cfi_startproc
	.cfi_personality 0x9b,DW.ref.__gxx_personality_v0
	.cfi_lsda 0x1b,.LLSDA5505
	endbr64
	pushq	%rbp
	.cfi_def_cfa_offset 16
	.cfi_offset 6, -16
	movq	%rsp, %rbp
	.cfi_def_cfa_register 6
	subq	$16, %rsp
	movq	%rdi, -8(%rbp)
	movq	-8(%rbp), %rax
	movq	%rax, %rdi
	call	_ZNSt12_Vector_baseImSaImEE19_M_get_Tp_allocatorEv
	movq	%rax, %rdx
	movq	-8(%rbp), %rax
	movq	8(%rax), %rcx
	movq	-8(%rbp), %rax
	movq	(%rax), %rax
	movq	%rcx, %rsi
	movq	%rax, %rdi
	call	_ZSt8_DestroyIPmmEvT_S1_RSaIT0_E
	movq	-8(%rbp), %rax
	movq	%rax, %rdi
	call	_ZNSt12_Vector_baseImSaImEED2Ev
	nop
	leave
	.cfi_def_cfa 7, 8
	ret
	.cfi_endproc
.LFE5505:
	.section	.gcc_except_table
.LLSDA5505:
	.byte	0xff
	.byte	0xff
	.byte	0x1
	.uleb128 .LLSDACSE5505-.LLSDACSB5505
.LLSDACSB5505:
.LLSDACSE5505:
	.section	.text._ZNSt6vectorImSaImEED2Ev,"axG",@progbits,_ZNSt6vectorImSaImEED5Ev,comdat
	.size	_ZNSt6vectorImSaImEED2Ev, .-_ZNSt6vectorImSaImEED2Ev
	.weak	_ZNSt6vectorImSaImEED1Ev
	.set	_ZNSt6vectorImSaImEED1Ev,_ZNSt6vectorImSaImEED2Ev
	.section	.text._ZNSt7__cxx1111basic_regexIcNS_12regex_traitsIcEEEC2Ev,"axG",@progbits,_ZNSt7__cxx1111basic_regexIcNS_12regex_traitsIcEEEC5Ev,comdat
	.align 2
	.weak	_ZNSt7__cxx1111basic_regexIcNS_12regex_traitsIcEEEC2Ev
	.type	_ZNSt7__cxx1111basic_regexIcNS_12regex_traitsIcEEEC2Ev, @function
_ZNSt7__cxx1111basic_regexIcNS_12regex_traitsIcEEEC2Ev:
.LFB5511:
	.cfi_startproc
	endbr64
	pushq	%rbp
	.cfi_def_cfa_offset 16
	.cfi_offset 6, -16
	movq	%rsp, %rbp
	.cfi_def_cfa_register 6
	subq	$16, %rsp
	movq	%rdi, -8(%rbp)
	movq	-8(%rbp), %rax
	movl	$16, (%rax)
	movq	-8(%rbp), %rax
	addq	$8, %rax
	movq	%rax, %rdi
	call	_ZNSt6localeC1Ev@PLT
	movq	-8(%rbp), %rax
	addq	$16, %rax
	movl	$0, %esi
	movq	%rax, %rdi
	call	_ZNSt10shared_ptrIKNSt8__detail4_NFAINSt7__cxx1112regex_traitsIcEEEEEC1EDn
	nop
	leave
	.cfi_def_cfa 7, 8
	ret
	.cfi_endproc
.LFE5511:
	.size	_ZNSt7__cxx1111basic_regexIcNS_12regex_traitsIcEEEC2Ev, .-_ZNSt7__cxx1111basic_regexIcNS_12regex_traitsIcEEEC2Ev
	.weak	_ZNSt7__cxx1111basic_regexIcNS_12regex_traitsIcEEEC1Ev
	.set	_ZNSt7__cxx1111basic_regexIcNS_12regex_traitsIcEEEC1Ev,_ZNSt7__cxx1111basic_regexIcNS_12regex_traitsIcEEEC2Ev
	.section	.text._ZNSt7__cxx1111basic_regexIcNS_12regex_traitsIcEEED2Ev,"axG",@progbits,_ZNSt7__cxx1111basic_regexIcNS_12regex_traitsIcEEED5Ev,comdat
	.align 2
	.weak	_ZNSt7__cxx1111basic_regexIcNS_12regex_traitsIcEEED2Ev
	.type	_ZNSt7__cxx1111basic_regexIcNS_12regex_traitsIcEEED2Ev, @function
_ZNSt7__cxx1111basic_regexIcNS_12regex_traitsIcEEED2Ev:
.LFB5514:
	.cfi_startproc
	endbr64
	pushq	%rbp
	.cfi_def_cfa_offset 16
	.cfi_offset 6, -16
	movq	%rsp, %rbp
	.cfi_def_cfa_register 6
	subq	$16, %rsp
	movq	%rdi, -8(%rbp)
	movq	-8(%rbp), %rax
	addq	$16, %rax
	movq	%rax, %rdi
	call	_ZNSt10shared_ptrIKNSt8__detail4_NFAINSt7__cxx1112regex_traitsIcEEEEED1Ev
	movq	-8(%rbp), %rax
	addq	$8, %rax
	movq	%rax, %rdi
	call	_ZNSt6localeD1Ev@PLT
	nop
	leave
	.cfi_def_cfa 7, 8
	ret
	.cfi_endproc
.LFE5514:
	.size	_ZNSt7__cxx1111basic_regexIcNS_12regex_traitsIcEEED2Ev, .-_ZNSt7__cxx1111basic_regexIcNS_12regex_traitsIcEEED2Ev
	.weak	_ZNSt7__cxx1111basic_regexIcNS_12regex_traitsIcEEED1Ev
	.set	_ZNSt7__cxx1111basic_regexIcNS_12regex_traitsIcEEED1Ev,_ZNSt7__cxx1111basic_regexIcNS_12regex_traitsIcEEED2Ev
	.section	.text._ZNSt7__cxx1111basic_regexIcNS_12regex_traitsIcEEEaSISt11char_traitsIcESaIcEEERS3_RKNS_12basic_stringIcT_T0_EE,"axG",@progbits,_ZNSt7__cxx1111basic_regexIcNS_12regex_traitsIcEEEaSISt11char_traitsIcESaIcEEERS3_RKNS_12basic_stringIcT_T0_EE,comdat
	.align 2
	.weak	_ZNSt7__cxx1111basic_regexIcNS_12regex_traitsIcEEEaSISt11char_traitsIcESaIcEEERS3_RKNS_12basic_stringIcT_T0_EE
	.type	_ZNSt7__cxx1111basic_regexIcNS_12regex_traitsIcEEEaSISt11char_traitsIcESaIcEEERS3_RKNS_12basic_stringIcT_T0_EE, @function
_ZNSt7__cxx1111basic_regexIcNS_12regex_traitsIcEEEaSISt11char_traitsIcESaIcEEERS3_RKNS_12basic_stringIcT_T0_EE:
.LFB5517:
	.cfi_startproc
	endbr64
	pushq	%rbp
	.cfi_def_cfa_offset 16
	.cfi_offset 6, -16
	movq	%rsp, %rbp
	.cfi_def_cfa_register 6
	subq	$16, %rsp
	movq	%rdi, -8(%rbp)
	movq	%rsi, -16(%rbp)
	movq	-16(%rbp), %rcx
	movq	-8(%rbp), %rax
	movl	$16, %edx
	movq	%rcx, %rsi
	movq	%rax, %rdi
	call	_ZNSt7__cxx1111basic_regexIcNS_12regex_traitsIcEEE6assignISt11char_traitsIcESaIcEEERS3_RKNS_12basic_stringIcT_T0_EENSt15regex_constants18syntax_option_typeE
	leave
	.cfi_def_cfa 7, 8
	ret
	.cfi_endproc
.LFE5517:
	.size	_ZNSt7__cxx1111basic_regexIcNS_12regex_traitsIcEEEaSISt11char_traitsIcESaIcEEERS3_RKNS_12basic_stringIcT_T0_EE, .-_ZNSt7__cxx1111basic_regexIcNS_12regex_traitsIcEEEaSISt11char_traitsIcESaIcEEERS3_RKNS_12basic_stringIcT_T0_EE
	.section	.text._ZNSt14__shared_countILN9__gnu_cxx12_Lock_policyE2EEC2ERKS2_,"axG",@progbits,_ZNSt14__shared_countILN9__gnu_cxx12_Lock_policyE2EEC5ERKS2_,comdat
	.align 2
	.weak	_ZNSt14__shared_countILN9__gnu_cxx12_Lock_policyE2EEC2ERKS2_
	.type	_ZNSt14__shared_countILN9__gnu_cxx12_Lock_policyE2EEC2ERKS2_, @function
_ZNSt14__shared_countILN9__gnu_cxx12_Lock_policyE2EEC2ERKS2_:
.LFB5522:
	.cfi_startproc
	endbr64
	pushq	%rbp
	.cfi_def_cfa_offset 16
	.cfi_offset 6, -16
	movq	%rsp, %rbp
	.cfi_def_cfa_register 6
	subq	$16, %rsp
	movq	%rdi, -8(%rbp)
	movq	%rsi, -16(%rbp)
	movq	-16(%rbp), %rax
	movq	(%rax), %rdx
	movq	-8(%rbp), %rax
	movq	%rdx, (%rax)
	movq	-8(%rbp), %rax
	movq	(%rax), %rax
	testq	%rax, %rax
	je	.L388
	movq	-8(%rbp), %rax
	movq	(%rax), %rax
	movq	%rax, %rdi
	call	_ZNSt16_Sp_counted_baseILN9__gnu_cxx12_Lock_policyE2EE15_M_add_ref_copyEv
.L388:
	nop
	leave
	.cfi_def_cfa 7, 8
	ret
	.cfi_endproc
.LFE5522:
	.size	_ZNSt14__shared_countILN9__gnu_cxx12_Lock_policyE2EEC2ERKS2_, .-_ZNSt14__shared_countILN9__gnu_cxx12_Lock_policyE2EEC2ERKS2_
	.weak	_ZNSt14__shared_countILN9__gnu_cxx12_Lock_policyE2EEC1ERKS2_
	.set	_ZNSt14__shared_countILN9__gnu_cxx12_Lock_policyE2EEC1ERKS2_,_ZNSt14__shared_countILN9__gnu_cxx12_Lock_policyE2EEC2ERKS2_
	.section	.text._ZNSt14__shared_countILN9__gnu_cxx12_Lock_policyE2EED2Ev,"axG",@progbits,_ZNSt14__shared_countILN9__gnu_cxx12_Lock_policyE2EED5Ev,comdat
	.align 2
	.weak	_ZNSt14__shared_countILN9__gnu_cxx12_Lock_policyE2EED2Ev
	.type	_ZNSt14__shared_countILN9__gnu_cxx12_Lock_policyE2EED2Ev, @function
_ZNSt14__shared_countILN9__gnu_cxx12_Lock_policyE2EED2Ev:
.LFB5525:
	.cfi_startproc
	endbr64
	pushq	%rbp
	.cfi_def_cfa_offset 16
	.cfi_offset 6, -16
	movq	%rsp, %rbp
	.cfi_def_cfa_register 6
	subq	$16, %rsp
	movq	%rdi, -8(%rbp)
	movq	-8(%rbp), %rax
	movq	(%rax), %rax
	testq	%rax, %rax
	je	.L391
	movq	-8(%rbp), %rax
	movq	(%rax), %rax
	movq	%rax, %rdi
	call	_ZNSt16_Sp_counted_baseILN9__gnu_cxx12_Lock_policyE2EE10_M_releaseEv
.L391:
	nop
	leave
	.cfi_def_cfa 7, 8
	ret
	.cfi_endproc
.LFE5525:
	.size	_ZNSt14__shared_countILN9__gnu_cxx12_Lock_policyE2EED2Ev, .-_ZNSt14__shared_countILN9__gnu_cxx12_Lock_policyE2EED2Ev
	.weak	_ZNSt14__shared_countILN9__gnu_cxx12_Lock_policyE2EED1Ev
	.set	_ZNSt14__shared_countILN9__gnu_cxx12_Lock_policyE2EED1Ev,_ZNSt14__shared_countILN9__gnu_cxx12_Lock_policyE2EED2Ev
	.section	.text._ZNSt12_Vector_baseI5TokenSaIS0_EE12_Vector_implC2Ev,"axG",@progbits,_ZNSt12_Vector_baseI5TokenSaIS0_EE12_Vector_implC5Ev,comdat
	.align 2
	.weak	_ZNSt12_Vector_baseI5TokenSaIS0_EE12_Vector_implC2Ev
	.type	_ZNSt12_Vector_baseI5TokenSaIS0_EE12_Vector_implC2Ev, @function
_ZNSt12_Vector_baseI5TokenSaIS0_EE12_Vector_implC2Ev:
.LFB5528:
	.cfi_startproc
	endbr64
	pushq	%rbp
	.cfi_def_cfa_offset 16
	.cfi_offset 6, -16
	movq	%rsp, %rbp
	.cfi_def_cfa_register 6
	subq	$16, %rsp
	movq	%rdi, -8(%rbp)
	movq	-8(%rbp), %rax
	movq	%rax, %rdi
	call	_ZNSaI5TokenEC2Ev
	movq	-8(%rbp), %rax
	movq	%rax, %rdi
	call	_ZNSt12_Vector_baseI5TokenSaIS0_EE17_Vector_impl_dataC2Ev
	nop
	leave
	.cfi_def_cfa 7, 8
	ret
	.cfi_endproc
.LFE5528:
	.size	_ZNSt12_Vector_baseI5TokenSaIS0_EE12_Vector_implC2Ev, .-_ZNSt12_Vector_baseI5TokenSaIS0_EE12_Vector_implC2Ev
	.weak	_ZNSt12_Vector_baseI5TokenSaIS0_EE12_Vector_implC1Ev
	.set	_ZNSt12_Vector_baseI5TokenSaIS0_EE12_Vector_implC1Ev,_ZNSt12_Vector_baseI5TokenSaIS0_EE12_Vector_implC2Ev
	.section	.text._ZNSaI5TokenED2Ev,"axG",@progbits,_ZNSaI5TokenED5Ev,comdat
	.align 2
	.weak	_ZNSaI5TokenED2Ev
	.type	_ZNSaI5TokenED2Ev, @function
_ZNSaI5TokenED2Ev:
.LFB5531:
	.cfi_startproc
	endbr64
	pushq	%rbp
	.cfi_def_cfa_offset 16
	.cfi_offset 6, -16
	movq	%rsp, %rbp
	.cfi_def_cfa_register 6
	subq	$16, %rsp
	movq	%rdi, -8(%rbp)
	movq	-8(%rbp), %rax
	movq	%rax, %rdi
	call	_ZN9__gnu_cxx13new_allocatorI5TokenED2Ev
	nop
	leave
	.cfi_def_cfa 7, 8
	ret
	.cfi_endproc
.LFE5531:
	.size	_ZNSaI5TokenED2Ev, .-_ZNSaI5TokenED2Ev
	.weak	_ZNSaI5TokenED1Ev
	.set	_ZNSaI5TokenED1Ev,_ZNSaI5TokenED2Ev
	.section	.text._ZNSt12_Vector_baseI5TokenSaIS0_EED2Ev,"axG",@progbits,_ZNSt12_Vector_baseI5TokenSaIS0_EED5Ev,comdat
	.align 2
	.weak	_ZNSt12_Vector_baseI5TokenSaIS0_EED2Ev
	.type	_ZNSt12_Vector_baseI5TokenSaIS0_EED2Ev, @function
_ZNSt12_Vector_baseI5TokenSaIS0_EED2Ev:
.LFB5534:
	.cfi_startproc
	.cfi_personality 0x9b,DW.ref.__gxx_personality_v0
	.cfi_lsda 0x1b,.LLSDA5534
	endbr64
	pushq	%rbp
	.cfi_def_cfa_offset 16
	.cfi_offset 6, -16
	movq	%rsp, %rbp
	.cfi_def_cfa_register 6
	subq	$16, %rsp
	movq	%rdi, -8(%rbp)
	movq	-8(%rbp), %rax
	movq	16(%rax), %rdx
	movq	-8(%rbp), %rax
	movq	(%rax), %rcx
	movq	%rdx, %rax
	subq	%rcx, %rax
	sarq	$5, %rax
	movq	%rax, %rdx
	movabsq	$-6148914691236517205, %rax
	imulq	%rdx, %rax
	movq	%rax, %rdx
	movq	-8(%rbp), %rax
	movq	(%rax), %rcx
	movq	-8(%rbp), %rax
	movq	%rcx, %rsi
	movq	%rax, %rdi
	call	_ZNSt12_Vector_baseI5TokenSaIS0_EE13_M_deallocateEPS0_m
	movq	-8(%rbp), %rax
	movq	%rax, %rdi
	call	_ZNSt12_Vector_baseI5TokenSaIS0_EE12_Vector_implD1Ev
	nop
	leave
	.cfi_def_cfa 7, 8
	ret
	.cfi_endproc
.LFE5534:
	.section	.gcc_except_table
.LLSDA5534:
	.byte	0xff
	.byte	0xff
	.byte	0x1
	.uleb128 .LLSDACSE5534-.LLSDACSB5534
.LLSDACSB5534:
.LLSDACSE5534:
	.section	.text._ZNSt12_Vector_baseI5TokenSaIS0_EED2Ev,"axG",@progbits,_ZNSt12_Vector_baseI5TokenSaIS0_EED5Ev,comdat
	.size	_ZNSt12_Vector_baseI5TokenSaIS0_EED2Ev, .-_ZNSt12_Vector_baseI5TokenSaIS0_EED2Ev
	.weak	_ZNSt12_Vector_baseI5TokenSaIS0_EED1Ev
	.set	_ZNSt12_Vector_baseI5TokenSaIS0_EED1Ev,_ZNSt12_Vector_baseI5TokenSaIS0_EED2Ev
	.section	.text._ZNSt6vectorI5TokenSaIS0_EED2Ev,"axG",@progbits,_ZNSt6vectorI5TokenSaIS0_EED5Ev,comdat
	.align 2
	.weak	_ZNSt6vectorI5TokenSaIS0_EED2Ev
	.type	_ZNSt6vectorI5TokenSaIS0_EED2Ev, @function
_ZNSt6vectorI5TokenSaIS0_EED2Ev:
.LFB5537:
	.cfi_startproc
	.cfi_personality 0x9b,DW.ref.__gxx_personality_v0
	.cfi_lsda 0x1b,.LLSDA5537
	endbr64
	pushq	%rbp
	.cfi_def_cfa_offset 16
	.cfi_offset 6, -16
	movq	%rsp, %rbp
	.cfi_def_cfa_register 6
	subq	$16, %rsp
	movq	%rdi, -8(%rbp)
	movq	-8(%rbp), %rax
	movq	%rax, %rdi
	call	_ZNSt12_Vector_baseI5TokenSaIS0_EE19_M_get_Tp_allocatorEv
	movq	%rax, %rdx
	movq	-8(%rbp), %rax
	movq	8(%rax), %rcx
	movq	-8(%rbp), %rax
	movq	(%rax), %rax
	movq	%rcx, %rsi
	movq	%rax, %rdi
	call	_ZSt8_DestroyIP5TokenS0_EvT_S2_RSaIT0_E
	movq	-8(%rbp), %rax
	movq	%rax, %rdi
	call	_ZNSt12_Vector_baseI5TokenSaIS0_EED2Ev
	nop
	leave
	.cfi_def_cfa 7, 8
	ret
	.cfi_endproc
.LFE5537:
	.section	.gcc_except_table
.LLSDA5537:
	.byte	0xff
	.byte	0xff
	.byte	0x1
	.uleb128 .LLSDACSE5537-.LLSDACSB5537
.LLSDACSB5537:
.LLSDACSE5537:
	.section	.text._ZNSt6vectorI5TokenSaIS0_EED2Ev,"axG",@progbits,_ZNSt6vectorI5TokenSaIS0_EED5Ev,comdat
	.size	_ZNSt6vectorI5TokenSaIS0_EED2Ev, .-_ZNSt6vectorI5TokenSaIS0_EED2Ev
	.weak	_ZNSt6vectorI5TokenSaIS0_EED1Ev
	.set	_ZNSt6vectorI5TokenSaIS0_EED1Ev,_ZNSt6vectorI5TokenSaIS0_EED2Ev
	.section	.text._ZNSt6vectorI5TokenSaIS0_EEaSEOS2_,"axG",@progbits,_ZNSt6vectorI5TokenSaIS0_EEaSEOS2_,comdat
	.align 2
	.weak	_ZNSt6vectorI5TokenSaIS0_EEaSEOS2_
	.type	_ZNSt6vectorI5TokenSaIS0_EEaSEOS2_, @function
_ZNSt6vectorI5TokenSaIS0_EEaSEOS2_:
.LFB5540:
	.cfi_startproc
	endbr64
	pushq	%rbp
	.cfi_def_cfa_offset 16
	.cfi_offset 6, -16
	movq	%rsp, %rbp
	.cfi_def_cfa_register 6
	subq	$32, %rsp
	movq	%rdi, -24(%rbp)
	movq	%rsi, -32(%rbp)
	movb	$1, -1(%rbp)
	movq	-32(%rbp), %rax
	movq	%rax, %rdi
	call	_ZSt4moveIRSt6vectorI5TokenSaIS1_EEEONSt16remove_referenceIT_E4typeEOS6_
	movq	%rax, %rdx
	movq	-24(%rbp), %rax
	movq	%rdx, %rsi
	movq	%rax, %rdi
	call	_ZNSt6vectorI5TokenSaIS0_EE14_M_move_assignEOS2_St17integral_constantIbLb1EE
	movq	-24(%rbp), %rax
	leave
	.cfi_def_cfa 7, 8
	ret
	.cfi_endproc
.LFE5540:
	.size	_ZNSt6vectorI5TokenSaIS0_EEaSEOS2_, .-_ZNSt6vectorI5TokenSaIS0_EEaSEOS2_
	.section	.text._ZNKSt6vectorI5TokenSaIS0_EE4sizeEv,"axG",@progbits,_ZNKSt6vectorI5TokenSaIS0_EE4sizeEv,comdat
	.align 2
	.weak	_ZNKSt6vectorI5TokenSaIS0_EE4sizeEv
	.type	_ZNKSt6vectorI5TokenSaIS0_EE4sizeEv, @function
_ZNKSt6vectorI5TokenSaIS0_EE4sizeEv:
.LFB5541:
	.cfi_startproc
	endbr64
	pushq	%rbp
	.cfi_def_cfa_offset 16
	.cfi_offset 6, -16
	movq	%rsp, %rbp
	.cfi_def_cfa_register 6
	movq	%rdi, -8(%rbp)
	movq	-8(%rbp), %rax
	movq	8(%rax), %rdx
	movq	-8(%rbp), %rax
	movq	(%rax), %rcx
	movq	%rdx, %rax
	subq	%rcx, %rax
	sarq	$5, %rax
	movq	%rax, %rdx
	movabsq	$-6148914691236517205, %rax
	imulq	%rdx, %rax
	popq	%rbp
	.cfi_def_cfa 7, 8
	ret
	.cfi_endproc
.LFE5541:
	.size	_ZNKSt6vectorI5TokenSaIS0_EE4sizeEv, .-_ZNKSt6vectorI5TokenSaIS0_EE4sizeEv
	.section	.text._ZNSt6vectorI5TokenSaIS0_EE9push_backERKS0_,"axG",@progbits,_ZNSt6vectorI5TokenSaIS0_EE9push_backERKS0_,comdat
	.align 2
	.weak	_ZNSt6vectorI5TokenSaIS0_EE9push_backERKS0_
	.type	_ZNSt6vectorI5TokenSaIS0_EE9push_backERKS0_, @function
_ZNSt6vectorI5TokenSaIS0_EE9push_backERKS0_:
.LFB5542:
	.cfi_startproc
	endbr64
	pushq	%rbp
	.cfi_def_cfa_offset 16
	.cfi_offset 6, -16
	movq	%rsp, %rbp
	.cfi_def_cfa_register 6
	subq	$16, %rsp
	movq	%rdi, -8(%rbp)
	movq	%rsi, -16(%rbp)
	movq	-8(%rbp), %rax
	movq	8(%rax), %rdx
	movq	-8(%rbp), %rax
	movq	16(%rax), %rax
	cmpq	%rax, %rdx
	je	.L401
	movq	-8(%rbp), %rax
	movq	8(%rax), %rcx
	movq	-8(%rbp), %rax
	movq	-16(%rbp), %rdx
	movq	%rcx, %rsi
	movq	%rax, %rdi
	call	_ZNSt16allocator_traitsISaI5TokenEE9constructIS0_JRKS0_EEEvRS1_PT_DpOT0_
	movq	-8(%rbp), %rax
	movq	8(%rax), %rax
	leaq	96(%rax), %rdx
	movq	-8(%rbp), %rax
	movq	%rdx, 8(%rax)
	jmp	.L403
.L401:
	movq	-8(%rbp), %rax
	movq	%rax, %rdi
	call	_ZNSt6vectorI5TokenSaIS0_EE3endEv
	movq	%rax, %rcx
	movq	-16(%rbp), %rdx
	movq	-8(%rbp), %rax
	movq	%rcx, %rsi
	movq	%rax, %rdi
	call	_ZNSt6vectorI5TokenSaIS0_EE17_M_realloc_insertIJRKS0_EEEvN9__gnu_cxx17__normal_iteratorIPS0_S2_EEDpOT_
.L403:
	nop
	leave
	.cfi_def_cfa 7, 8
	ret
	.cfi_endproc
.LFE5542:
	.size	_ZNSt6vectorI5TokenSaIS0_EE9push_backERKS0_, .-_ZNSt6vectorI5TokenSaIS0_EE9push_backERKS0_
	.section	.text._ZNSt6vectorI5TokenSaIS0_EEixEm,"axG",@progbits,_ZNSt6vectorI5TokenSaIS0_EEixEm,comdat
	.align 2
	.weak	_ZNSt6vectorI5TokenSaIS0_EEixEm
	.type	_ZNSt6vectorI5TokenSaIS0_EEixEm, @function
_ZNSt6vectorI5TokenSaIS0_EEixEm:
.LFB5544:
	.cfi_startproc
	endbr64
	pushq	%rbp
	.cfi_def_cfa_offset 16
	.cfi_offset 6, -16
	movq	%rsp, %rbp
	.cfi_def_cfa_register 6
	movq	%rdi, -8(%rbp)
	movq	%rsi, -16(%rbp)
	movq	-8(%rbp), %rax
	movq	(%rax), %rcx
	movq	-16(%rbp), %rdx
	movq	%rdx, %rax
	addq	%rax, %rax
	addq	%rdx, %rax
	salq	$5, %rax
	addq	%rcx, %rax
	popq	%rbp
	.cfi_def_cfa 7, 8
	ret
	.cfi_endproc
.LFE5544:
	.size	_ZNSt6vectorI5TokenSaIS0_EEixEm, .-_ZNSt6vectorI5TokenSaIS0_EEixEm
	.section	.text._ZNSt6vectorI5TokenSaIS0_EEC2ERKS2_,"axG",@progbits,_ZNSt6vectorI5TokenSaIS0_EEC5ERKS2_,comdat
	.align 2
	.weak	_ZNSt6vectorI5TokenSaIS0_EEC2ERKS2_
	.type	_ZNSt6vectorI5TokenSaIS0_EEC2ERKS2_, @function
_ZNSt6vectorI5TokenSaIS0_EEC2ERKS2_:
.LFB5546:
	.cfi_startproc
	.cfi_personality 0x9b,DW.ref.__gxx_personality_v0
	.cfi_lsda 0x1b,.LLSDA5546
	endbr64
	pushq	%rbp
	.cfi_def_cfa_offset 16
	.cfi_offset 6, -16
	movq	%rsp, %rbp
	.cfi_def_cfa_register 6
	pushq	%r13
	pushq	%r12
	pushq	%rbx
	subq	$40, %rsp
	.cfi_offset 13, -24
	.cfi_offset 12, -32
	.cfi_offset 3, -40
	movq	%rdi, -56(%rbp)
	movq	%rsi, -64(%rbp)
	movq	%fs:40, %rax
	movq	%rax, -40(%rbp)
	xorl	%eax, %eax
	movq	-56(%rbp), %rbx
	movq	-64(%rbp), %rax
	movq	%rax, %rdi
	call	_ZNKSt12_Vector_baseI5TokenSaIS0_EE19_M_get_Tp_allocatorEv
	movq	%rax, %rdx
	leaq	-41(%rbp), %rax
	movq	%rdx, %rsi
	movq	%rax, %rdi
.LEHB60:
	call	_ZN9__gnu_cxx14__alloc_traitsISaI5TokenES1_E17_S_select_on_copyERKS2_
.LEHE60:
	movq	-64(%rbp), %rax
	movq	%rax, %rdi
	call	_ZNKSt6vectorI5TokenSaIS0_EE4sizeEv
	movq	%rax, %rcx
	leaq	-41(%rbp), %rax
	movq	%rax, %rdx
	movq	%rcx, %rsi
	movq	%rbx, %rdi
.LEHB61:
	call	_ZNSt12_Vector_baseI5TokenSaIS0_EEC2EmRKS1_
.LEHE61:
	leaq	-41(%rbp), %rax
	movq	%rax, %rdi
	call	_ZNSaI5TokenED1Ev
	movq	-56(%rbp), %rax
	movq	%rax, %rdi
	call	_ZNSt12_Vector_baseI5TokenSaIS0_EE19_M_get_Tp_allocatorEv
	movq	%rax, %r13
	movq	-56(%rbp), %rax
	movq	(%rax), %rbx
	movq	-64(%rbp), %rax
	movq	%rax, %rdi
	call	_ZNKSt6vectorI5TokenSaIS0_EE3endEv
	movq	%rax, %r12
	movq	-64(%rbp), %rax
	movq	%rax, %rdi
	call	_ZNKSt6vectorI5TokenSaIS0_EE5beginEv
	movq	%r13, %rcx
	movq	%rbx, %rdx
	movq	%r12, %rsi
	movq	%rax, %rdi
.LEHB62:
	call	_ZSt22__uninitialized_copy_aIN9__gnu_cxx17__normal_iteratorIPK5TokenSt6vectorIS2_SaIS2_EEEEPS2_S2_ET0_T_SB_SA_RSaIT1_E
.LEHE62:
	movq	-56(%rbp), %rdx
	movq	%rax, 8(%rdx)
	nop
	movq	-40(%rbp), %rax
	subq	%fs:40, %rax
	je	.L409
	jmp	.L412
.L410:
	endbr64
	movq	%rax, %rbx
	leaq	-41(%rbp), %rax
	movq	%rax, %rdi
	call	_ZNSaI5TokenED1Ev
	movq	%rbx, %rax
	movq	%rax, %rdi
.LEHB63:
	call	_Unwind_Resume@PLT
.L411:
	endbr64
	movq	%rax, %rbx
	movq	-56(%rbp), %rax
	movq	%rax, %rdi
	call	_ZNSt12_Vector_baseI5TokenSaIS0_EED2Ev
	movq	%rbx, %rax
	movq	%rax, %rdi
	call	_Unwind_Resume@PLT
.LEHE63:
.L412:
	call	__stack_chk_fail@PLT
.L409:
	addq	$40, %rsp
	popq	%rbx
	popq	%r12
	popq	%r13
	popq	%rbp
	.cfi_def_cfa 7, 8
	ret
	.cfi_endproc
.LFE5546:
	.section	.gcc_except_table
.LLSDA5546:
	.byte	0xff
	.byte	0xff
	.byte	0x1
	.uleb128 .LLSDACSE5546-.LLSDACSB5546
.LLSDACSB5546:
	.uleb128 .LEHB60-.LFB5546
	.uleb128 .LEHE60-.LEHB60
	.uleb128 0
	.uleb128 0
	.uleb128 .LEHB61-.LFB5546
	.uleb128 .LEHE61-.LEHB61
	.uleb128 .L410-.LFB5546
	.uleb128 0
	.uleb128 .LEHB62-.LFB5546
	.uleb128 .LEHE62-.LEHB62
	.uleb128 .L411-.LFB5546
	.uleb128 0
	.uleb128 .LEHB63-.LFB5546
	.uleb128 .LEHE63-.LEHB63
	.uleb128 0
	.uleb128 0
.LLSDACSE5546:
	.section	.text._ZNSt6vectorI5TokenSaIS0_EEC2ERKS2_,"axG",@progbits,_ZNSt6vectorI5TokenSaIS0_EEC5ERKS2_,comdat
	.size	_ZNSt6vectorI5TokenSaIS0_EEC2ERKS2_, .-_ZNSt6vectorI5TokenSaIS0_EEC2ERKS2_
	.weak	_ZNSt6vectorI5TokenSaIS0_EEC1ERKS2_
	.set	_ZNSt6vectorI5TokenSaIS0_EEC1ERKS2_,_ZNSt6vectorI5TokenSaIS0_EEC2ERKS2_
	.section	.text._ZSteqIcSt11char_traitsIcESaIcEEbRKNSt7__cxx1112basic_stringIT_T0_T1_EEPKS5_,"axG",@progbits,_ZSteqIcSt11char_traitsIcESaIcEEbRKNSt7__cxx1112basic_stringIT_T0_T1_EEPKS5_,comdat
	.weak	_ZSteqIcSt11char_traitsIcESaIcEEbRKNSt7__cxx1112basic_stringIT_T0_T1_EEPKS5_
	.type	_ZSteqIcSt11char_traitsIcESaIcEEbRKNSt7__cxx1112basic_stringIT_T0_T1_EEPKS5_, @function
_ZSteqIcSt11char_traitsIcESaIcEEbRKNSt7__cxx1112basic_stringIT_T0_T1_EEPKS5_:
.LFB5551:
	.cfi_startproc
	endbr64
	pushq	%rbp
	.cfi_def_cfa_offset 16
	.cfi_offset 6, -16
	movq	%rsp, %rbp
	.cfi_def_cfa_register 6
	subq	$16, %rsp
	movq	%rdi, -8(%rbp)
	movq	%rsi, -16(%rbp)
	movq	-16(%rbp), %rdx
	movq	-8(%rbp), %rax
	movq	%rdx, %rsi
	movq	%rax, %rdi
	call	_ZNKSt7__cxx1112basic_stringIcSt11char_traitsIcESaIcEE7compareEPKc@PLT
	testl	%eax, %eax
	sete	%al
	leave
	.cfi_def_cfa 7, 8
	ret
	.cfi_endproc
.LFE5551:
	.size	_ZSteqIcSt11char_traitsIcESaIcEEbRKNSt7__cxx1112basic_stringIT_T0_T1_EEPKS5_, .-_ZSteqIcSt11char_traitsIcESaIcEEbRKNSt7__cxx1112basic_stringIT_T0_T1_EEPKS5_
	.section	.text._ZNSt12_Vector_baseI6LexemeSaIS0_EE12_Vector_implC2Ev,"axG",@progbits,_ZNSt12_Vector_baseI6LexemeSaIS0_EE12_Vector_implC5Ev,comdat
	.align 2
	.weak	_ZNSt12_Vector_baseI6LexemeSaIS0_EE12_Vector_implC2Ev
	.type	_ZNSt12_Vector_baseI6LexemeSaIS0_EE12_Vector_implC2Ev, @function
_ZNSt12_Vector_baseI6LexemeSaIS0_EE12_Vector_implC2Ev:
.LFB5556:
	.cfi_startproc
	endbr64
	pushq	%rbp
	.cfi_def_cfa_offset 16
	.cfi_offset 6, -16
	movq	%rsp, %rbp
	.cfi_def_cfa_register 6
	subq	$16, %rsp
	movq	%rdi, -8(%rbp)
	movq	-8(%rbp), %rax
	movq	%rax, %rdi
	call	_ZNSaI6LexemeEC2Ev
	movq	-8(%rbp), %rax
	movq	%rax, %rdi
	call	_ZNSt12_Vector_baseI6LexemeSaIS0_EE17_Vector_impl_dataC2Ev
	nop
	leave
	.cfi_def_cfa 7, 8
	ret
	.cfi_endproc
.LFE5556:
	.size	_ZNSt12_Vector_baseI6LexemeSaIS0_EE12_Vector_implC2Ev, .-_ZNSt12_Vector_baseI6LexemeSaIS0_EE12_Vector_implC2Ev
	.weak	_ZNSt12_Vector_baseI6LexemeSaIS0_EE12_Vector_implC1Ev
	.set	_ZNSt12_Vector_baseI6LexemeSaIS0_EE12_Vector_implC1Ev,_ZNSt12_Vector_baseI6LexemeSaIS0_EE12_Vector_implC2Ev
	.section	.text._ZNSaI6LexemeED2Ev,"axG",@progbits,_ZNSaI6LexemeED5Ev,comdat
	.align 2
	.weak	_ZNSaI6LexemeED2Ev
	.type	_ZNSaI6LexemeED2Ev, @function
_ZNSaI6LexemeED2Ev:
.LFB5559:
	.cfi_startproc
	endbr64
	pushq	%rbp
	.cfi_def_cfa_offset 16
	.cfi_offset 6, -16
	movq	%rsp, %rbp
	.cfi_def_cfa_register 6
	subq	$16, %rsp
	movq	%rdi, -8(%rbp)
	movq	-8(%rbp), %rax
	movq	%rax, %rdi
	call	_ZN9__gnu_cxx13new_allocatorI6LexemeED2Ev
	nop
	leave
	.cfi_def_cfa 7, 8
	ret
	.cfi_endproc
.LFE5559:
	.size	_ZNSaI6LexemeED2Ev, .-_ZNSaI6LexemeED2Ev
	.weak	_ZNSaI6LexemeED1Ev
	.set	_ZNSaI6LexemeED1Ev,_ZNSaI6LexemeED2Ev
	.section	.text._ZNSt12_Vector_baseI6LexemeSaIS0_EED2Ev,"axG",@progbits,_ZNSt12_Vector_baseI6LexemeSaIS0_EED5Ev,comdat
	.align 2
	.weak	_ZNSt12_Vector_baseI6LexemeSaIS0_EED2Ev
	.type	_ZNSt12_Vector_baseI6LexemeSaIS0_EED2Ev, @function
_ZNSt12_Vector_baseI6LexemeSaIS0_EED2Ev:
.LFB5562:
	.cfi_startproc
	.cfi_personality 0x9b,DW.ref.__gxx_personality_v0
	.cfi_lsda 0x1b,.LLSDA5562
	endbr64
	pushq	%rbp
	.cfi_def_cfa_offset 16
	.cfi_offset 6, -16
	movq	%rsp, %rbp
	.cfi_def_cfa_register 6
	subq	$16, %rsp
	movq	%rdi, -8(%rbp)
	movq	-8(%rbp), %rax
	movq	16(%rax), %rdx
	movq	-8(%rbp), %rax
	movq	(%rax), %rcx
	movq	%rdx, %rax
	subq	%rcx, %rax
	sarq	$6, %rax
	movq	%rax, %rdx
	movq	-8(%rbp), %rax
	movq	(%rax), %rcx
	movq	-8(%rbp), %rax
	movq	%rcx, %rsi
	movq	%rax, %rdi
	call	_ZNSt12_Vector_baseI6LexemeSaIS0_EE13_M_deallocateEPS0_m
	movq	-8(%rbp), %rax
	movq	%rax, %rdi
	call	_ZNSt12_Vector_baseI6LexemeSaIS0_EE12_Vector_implD1Ev
	nop
	leave
	.cfi_def_cfa 7, 8
	ret
	.cfi_endproc
.LFE5562:
	.section	.gcc_except_table
.LLSDA5562:
	.byte	0xff
	.byte	0xff
	.byte	0x1
	.uleb128 .LLSDACSE5562-.LLSDACSB5562
.LLSDACSB5562:
.LLSDACSE5562:
	.section	.text._ZNSt12_Vector_baseI6LexemeSaIS0_EED2Ev,"axG",@progbits,_ZNSt12_Vector_baseI6LexemeSaIS0_EED5Ev,comdat
	.size	_ZNSt12_Vector_baseI6LexemeSaIS0_EED2Ev, .-_ZNSt12_Vector_baseI6LexemeSaIS0_EED2Ev
	.weak	_ZNSt12_Vector_baseI6LexemeSaIS0_EED1Ev
	.set	_ZNSt12_Vector_baseI6LexemeSaIS0_EED1Ev,_ZNSt12_Vector_baseI6LexemeSaIS0_EED2Ev
	.section	.text._ZNSt6vectorI6LexemeSaIS0_EED2Ev,"axG",@progbits,_ZNSt6vectorI6LexemeSaIS0_EED5Ev,comdat
	.align 2
	.weak	_ZNSt6vectorI6LexemeSaIS0_EED2Ev
	.type	_ZNSt6vectorI6LexemeSaIS0_EED2Ev, @function
_ZNSt6vectorI6LexemeSaIS0_EED2Ev:
.LFB5565:
	.cfi_startproc
	.cfi_personality 0x9b,DW.ref.__gxx_personality_v0
	.cfi_lsda 0x1b,.LLSDA5565
	endbr64
	pushq	%rbp
	.cfi_def_cfa_offset 16
	.cfi_offset 6, -16
	movq	%rsp, %rbp
	.cfi_def_cfa_register 6
	subq	$16, %rsp
	movq	%rdi, -8(%rbp)
	movq	-8(%rbp), %rax
	movq	%rax, %rdi
	call	_ZNSt12_Vector_baseI6LexemeSaIS0_EE19_M_get_Tp_allocatorEv
	movq	%rax, %rdx
	movq	-8(%rbp), %rax
	movq	8(%rax), %rcx
	movq	-8(%rbp), %rax
	movq	(%rax), %rax
	movq	%rcx, %rsi
	movq	%rax, %rdi
	call	_ZSt8_DestroyIP6LexemeS0_EvT_S2_RSaIT0_E
	movq	-8(%rbp), %rax
	movq	%rax, %rdi
	call	_ZNSt12_Vector_baseI6LexemeSaIS0_EED2Ev
	nop
	leave
	.cfi_def_cfa 7, 8
	ret
	.cfi_endproc
.LFE5565:
	.section	.gcc_except_table
.LLSDA5565:
	.byte	0xff
	.byte	0xff
	.byte	0x1
	.uleb128 .LLSDACSE5565-.LLSDACSB5565
.LLSDACSB5565:
.LLSDACSE5565:
	.section	.text._ZNSt6vectorI6LexemeSaIS0_EED2Ev,"axG",@progbits,_ZNSt6vectorI6LexemeSaIS0_EED5Ev,comdat
	.size	_ZNSt6vectorI6LexemeSaIS0_EED2Ev, .-_ZNSt6vectorI6LexemeSaIS0_EED2Ev
	.weak	_ZNSt6vectorI6LexemeSaIS0_EED1Ev
	.set	_ZNSt6vectorI6LexemeSaIS0_EED1Ev,_ZNSt6vectorI6LexemeSaIS0_EED2Ev
	.section	.text._ZNKSt6vectorI6LexemeSaIS0_EE4sizeEv,"axG",@progbits,_ZNKSt6vectorI6LexemeSaIS0_EE4sizeEv,comdat
	.align 2
	.weak	_ZNKSt6vectorI6LexemeSaIS0_EE4sizeEv
	.type	_ZNKSt6vectorI6LexemeSaIS0_EE4sizeEv, @function
_ZNKSt6vectorI6LexemeSaIS0_EE4sizeEv:
.LFB5567:
	.cfi_startproc
	endbr64
	pushq	%rbp
	.cfi_def_cfa_offset 16
	.cfi_offset 6, -16
	movq	%rsp, %rbp
	.cfi_def_cfa_register 6
	movq	%rdi, -8(%rbp)
	movq	-8(%rbp), %rax
	movq	8(%rax), %rdx
	movq	-8(%rbp), %rax
	movq	(%rax), %rcx
	movq	%rdx, %rax
	subq	%rcx, %rax
	sarq	$6, %rax
	popq	%rbp
	.cfi_def_cfa 7, 8
	ret
	.cfi_endproc
.LFE5567:
	.size	_ZNKSt6vectorI6LexemeSaIS0_EE4sizeEv, .-_ZNKSt6vectorI6LexemeSaIS0_EE4sizeEv
	.section	.text._ZNSt6vectorI6LexemeSaIS0_EEixEm,"axG",@progbits,_ZNSt6vectorI6LexemeSaIS0_EEixEm,comdat
	.align 2
	.weak	_ZNSt6vectorI6LexemeSaIS0_EEixEm
	.type	_ZNSt6vectorI6LexemeSaIS0_EEixEm, @function
_ZNSt6vectorI6LexemeSaIS0_EEixEm:
.LFB5568:
	.cfi_startproc
	endbr64
	pushq	%rbp
	.cfi_def_cfa_offset 16
	.cfi_offset 6, -16
	movq	%rsp, %rbp
	.cfi_def_cfa_register 6
	movq	%rdi, -8(%rbp)
	movq	%rsi, -16(%rbp)
	movq	-8(%rbp), %rax
	movq	(%rax), %rdx
	movq	-16(%rbp), %rax
	salq	$6, %rax
	addq	%rdx, %rax
	popq	%rbp
	.cfi_def_cfa 7, 8
	ret
	.cfi_endproc
.LFE5568:
	.size	_ZNSt6vectorI6LexemeSaIS0_EEixEm, .-_ZNSt6vectorI6LexemeSaIS0_EEixEm
	.section	.text._ZNSt7__cxx1113match_resultsIN9__gnu_cxx17__normal_iteratorIPKcNS_12basic_stringIcSt11char_traitsIcESaIcEEEEESaINS_9sub_matchISA_EEEEC2Ev,"axG",@progbits,_ZNSt7__cxx1113match_resultsIN9__gnu_cxx17__normal_iteratorIPKcNS_12basic_stringIcSt11char_traitsIcESaIcEEEEESaINS_9sub_matchISA_EEEEC5Ev,comdat
	.align 2
	.weak	_ZNSt7__cxx1113match_resultsIN9__gnu_cxx17__normal_iteratorIPKcNS_12basic_stringIcSt11char_traitsIcESaIcEEEEESaINS_9sub_matchISA_EEEEC2Ev
	.type	_ZNSt7__cxx1113match_resultsIN9__gnu_cxx17__normal_iteratorIPKcNS_12basic_stringIcSt11char_traitsIcESaIcEEEEESaINS_9sub_matchISA_EEEEC2Ev, @function
_ZNSt7__cxx1113match_resultsIN9__gnu_cxx17__normal_iteratorIPKcNS_12basic_stringIcSt11char_traitsIcESaIcEEEEESaINS_9sub_matchISA_EEEEC2Ev:
.LFB5570:
	.cfi_startproc
	endbr64
	pushq	%rbp
	.cfi_def_cfa_offset 16
	.cfi_offset 6, -16
	movq	%rsp, %rbp
	.cfi_def_cfa_register 6
	subq	$32, %rsp
	movq	%rdi, -24(%rbp)
	movq	%fs:40, %rax
	movq	%rax, -8(%rbp)
	xorl	%eax, %eax
	leaq	-9(%rbp), %rax
	movq	%rax, %rdi
	call	_ZNSaINSt7__cxx119sub_matchIN9__gnu_cxx17__normal_iteratorIPKcNS_12basic_stringIcSt11char_traitsIcESaIcEEEEEEEEC1Ev
	leaq	-9(%rbp), %rdx
	movq	-24(%rbp), %rax
	movq	%rdx, %rsi
	movq	%rax, %rdi
	call	_ZNSt7__cxx1113match_resultsIN9__gnu_cxx17__normal_iteratorIPKcNS_12basic_stringIcSt11char_traitsIcESaIcEEEEESaINS_9sub_matchISA_EEEEC1ERKSD_
	leaq	-9(%rbp), %rax
	movq	%rax, %rdi
	call	_ZNSaINSt7__cxx119sub_matchIN9__gnu_cxx17__normal_iteratorIPKcNS_12basic_stringIcSt11char_traitsIcESaIcEEEEEEEED1Ev
	nop
	movq	-8(%rbp), %rax
	subq	%fs:40, %rax
	je	.L424
	call	__stack_chk_fail@PLT
.L424:
	leave
	.cfi_def_cfa 7, 8
	ret
	.cfi_endproc
.LFE5570:
	.size	_ZNSt7__cxx1113match_resultsIN9__gnu_cxx17__normal_iteratorIPKcNS_12basic_stringIcSt11char_traitsIcESaIcEEEEESaINS_9sub_matchISA_EEEEC2Ev, .-_ZNSt7__cxx1113match_resultsIN9__gnu_cxx17__normal_iteratorIPKcNS_12basic_stringIcSt11char_traitsIcESaIcEEEEESaINS_9sub_matchISA_EEEEC2Ev
	.weak	_ZNSt7__cxx1113match_resultsIN9__gnu_cxx17__normal_iteratorIPKcNS_12basic_stringIcSt11char_traitsIcESaIcEEEEESaINS_9sub_matchISA_EEEEC1Ev
	.set	_ZNSt7__cxx1113match_resultsIN9__gnu_cxx17__normal_iteratorIPKcNS_12basic_stringIcSt11char_traitsIcESaIcEEEEESaINS_9sub_matchISA_EEEEC1Ev,_ZNSt7__cxx1113match_resultsIN9__gnu_cxx17__normal_iteratorIPKcNS_12basic_stringIcSt11char_traitsIcESaIcEEEEESaINS_9sub_matchISA_EEEEC2Ev
	.section	.text._ZNSt6vectorINSt7__cxx119sub_matchIN9__gnu_cxx17__normal_iteratorIPKcNS0_12basic_stringIcSt11char_traitsIcESaIcEEEEEEESaISC_EED2Ev,"axG",@progbits,_ZNSt6vectorINSt7__cxx119sub_matchIN9__gnu_cxx17__normal_iteratorIPKcNS0_12basic_stringIcSt11char_traitsIcESaIcEEEEEEESaISC_EED5Ev,comdat
	.align 2
	.weak	_ZNSt6vectorINSt7__cxx119sub_matchIN9__gnu_cxx17__normal_iteratorIPKcNS0_12basic_stringIcSt11char_traitsIcESaIcEEEEEEESaISC_EED2Ev
	.type	_ZNSt6vectorINSt7__cxx119sub_matchIN9__gnu_cxx17__normal_iteratorIPKcNS0_12basic_stringIcSt11char_traitsIcESaIcEEEEEEESaISC_EED2Ev, @function
_ZNSt6vectorINSt7__cxx119sub_matchIN9__gnu_cxx17__normal_iteratorIPKcNS0_12basic_stringIcSt11char_traitsIcESaIcEEEEEEESaISC_EED2Ev:
.LFB5573:
	.cfi_startproc
	.cfi_personality 0x9b,DW.ref.__gxx_personality_v0
	.cfi_lsda 0x1b,.LLSDA5573
	endbr64
	pushq	%rbp
	.cfi_def_cfa_offset 16
	.cfi_offset 6, -16
	movq	%rsp, %rbp
	.cfi_def_cfa_register 6
	subq	$16, %rsp
	movq	%rdi, -8(%rbp)
	movq	-8(%rbp), %rax
	movq	%rax, %rdi
	call	_ZNSt12_Vector_baseINSt7__cxx119sub_matchIN9__gnu_cxx17__normal_iteratorIPKcNS0_12basic_stringIcSt11char_traitsIcESaIcEEEEEEESaISC_EE19_M_get_Tp_allocatorEv
	movq	%rax, %rdx
	movq	-8(%rbp), %rax
	movq	8(%rax), %rcx
	movq	-8(%rbp), %rax
	movq	(%rax), %rax
	movq	%rcx, %rsi
	movq	%rax, %rdi
	call	_ZSt8_DestroyIPNSt7__cxx119sub_matchIN9__gnu_cxx17__normal_iteratorIPKcNS0_12basic_stringIcSt11char_traitsIcESaIcEEEEEEESC_EvT_SE_RSaIT0_E
	movq	-8(%rbp), %rax
	movq	%rax, %rdi
	call	_ZNSt12_Vector_baseINSt7__cxx119sub_matchIN9__gnu_cxx17__normal_iteratorIPKcNS0_12basic_stringIcSt11char_traitsIcESaIcEEEEEEESaISC_EED2Ev
	nop
	leave
	.cfi_def_cfa 7, 8
	ret
	.cfi_endproc
.LFE5573:
	.section	.gcc_except_table
.LLSDA5573:
	.byte	0xff
	.byte	0xff
	.byte	0x1
	.uleb128 .LLSDACSE5573-.LLSDACSB5573
.LLSDACSB5573:
.LLSDACSE5573:
	.section	.text._ZNSt6vectorINSt7__cxx119sub_matchIN9__gnu_cxx17__normal_iteratorIPKcNS0_12basic_stringIcSt11char_traitsIcESaIcEEEEEEESaISC_EED2Ev,"axG",@progbits,_ZNSt6vectorINSt7__cxx119sub_matchIN9__gnu_cxx17__normal_iteratorIPKcNS0_12basic_stringIcSt11char_traitsIcESaIcEEEEEEESaISC_EED5Ev,comdat
	.size	_ZNSt6vectorINSt7__cxx119sub_matchIN9__gnu_cxx17__normal_iteratorIPKcNS0_12basic_stringIcSt11char_traitsIcESaIcEEEEEEESaISC_EED2Ev, .-_ZNSt6vectorINSt7__cxx119sub_matchIN9__gnu_cxx17__normal_iteratorIPKcNS0_12basic_stringIcSt11char_traitsIcESaIcEEEEEEESaISC_EED2Ev
	.weak	_ZNSt6vectorINSt7__cxx119sub_matchIN9__gnu_cxx17__normal_iteratorIPKcNS0_12basic_stringIcSt11char_traitsIcESaIcEEEEEEESaISC_EED1Ev
	.set	_ZNSt6vectorINSt7__cxx119sub_matchIN9__gnu_cxx17__normal_iteratorIPKcNS0_12basic_stringIcSt11char_traitsIcESaIcEEEEEEESaISC_EED1Ev,_ZNSt6vectorINSt7__cxx119sub_matchIN9__gnu_cxx17__normal_iteratorIPKcNS0_12basic_stringIcSt11char_traitsIcESaIcEEEEEEESaISC_EED2Ev
	.section	.text._ZSt12regex_searchISt11char_traitsIcESaIcESaINSt7__cxx119sub_matchIN9__gnu_cxx17__normal_iteratorIPKcNS3_12basic_stringIcS1_S2_EEEEEEEcNS3_12regex_traitsIcEEEbRKNS9_IT2_T_T0_EERNS3_13match_resultsINSJ_14const_iteratorET1_EERKNS3_11basic_regexISG_T3_EENSt15regex_constants15match_flag_typeE,"axG",@progbits,_ZSt12regex_searchISt11char_traitsIcESaIcESaINSt7__cxx119sub_matchIN9__gnu_cxx17__normal_iteratorIPKcNS3_12basic_stringIcS1_S2_EEEEEEEcNS3_12regex_traitsIcEEEbRKNS9_IT2_T_T0_EERNS3_13match_resultsINSJ_14const_iteratorET1_EERKNS3_11basic_regexISG_T3_EENSt15regex_constants15match_flag_typeE,comdat
	.weak	_ZSt12regex_searchISt11char_traitsIcESaIcESaINSt7__cxx119sub_matchIN9__gnu_cxx17__normal_iteratorIPKcNS3_12basic_stringIcS1_S2_EEEEEEEcNS3_12regex_traitsIcEEEbRKNS9_IT2_T_T0_EERNS3_13match_resultsINSJ_14const_iteratorET1_EERKNS3_11basic_regexISG_T3_EENSt15regex_constants15match_flag_typeE
	.type	_ZSt12regex_searchISt11char_traitsIcESaIcESaINSt7__cxx119sub_matchIN9__gnu_cxx17__normal_iteratorIPKcNS3_12basic_stringIcS1_S2_EEEEEEEcNS3_12regex_traitsIcEEEbRKNS9_IT2_T_T0_EERNS3_13match_resultsINSJ_14const_iteratorET1_EERKNS3_11basic_regexISG_T3_EENSt15regex_constants15match_flag_typeE, @function
_ZSt12regex_searchISt11char_traitsIcESaIcESaINSt7__cxx119sub_matchIN9__gnu_cxx17__normal_iteratorIPKcNS3_12basic_stringIcS1_S2_EEEEEEEcNS3_12regex_traitsIcEEEbRKNS9_IT2_T_T0_EERNS3_13match_resultsINSJ_14const_iteratorET1_EERKNS3_11basic_regexISG_T3_EENSt15regex_constants15match_flag_typeE:
.LFB5575:
	.cfi_startproc
	endbr64
	pushq	%rbp
	.cfi_def_cfa_offset 16
	.cfi_offset 6, -16
	movq	%rsp, %rbp
	.cfi_def_cfa_register 6
	pushq	%rbx
	subq	$40, %rsp
	.cfi_offset 3, -24
	movq	%rdi, -24(%rbp)
	movq	%rsi, -32(%rbp)
	movq	%rdx, -40(%rbp)
	movl	%ecx, -44(%rbp)
	movq	-24(%rbp), %rax
	movq	%rax, %rdi
	call	_ZNKSt7__cxx1112basic_stringIcSt11char_traitsIcESaIcEE3endEv@PLT
	movq	%rax, %rbx
	movq	-24(%rbp), %rax
	movq	%rax, %rdi
	call	_ZNKSt7__cxx1112basic_stringIcSt11char_traitsIcESaIcEE5beginEv@PLT
	movq	%rax, %rdi
	movl	-44(%rbp), %ecx
	movq	-40(%rbp), %rdx
	movq	-32(%rbp), %rax
	movl	%ecx, %r8d
	movq	%rdx, %rcx
	movq	%rax, %rdx
	movq	%rbx, %rsi
	call	_ZSt12regex_searchIN9__gnu_cxx17__normal_iteratorIPKcNSt7__cxx1112basic_stringIcSt11char_traitsIcESaIcEEEEESaINS4_9sub_matchISA_EEEcNS4_12regex_traitsIcEEEbT_SG_RNS4_13match_resultsISG_T0_EERKNS4_11basic_regexIT1_T2_EENSt15regex_constants15match_flag_typeE
	movq	-8(%rbp), %rbx
	leave
	.cfi_def_cfa 7, 8
	ret
	.cfi_endproc
.LFE5575:
	.size	_ZSt12regex_searchISt11char_traitsIcESaIcESaINSt7__cxx119sub_matchIN9__gnu_cxx17__normal_iteratorIPKcNS3_12basic_stringIcS1_S2_EEEEEEEcNS3_12regex_traitsIcEEEbRKNS9_IT2_T_T0_EERNS3_13match_resultsINSJ_14const_iteratorET1_EERKNS3_11basic_regexISG_T3_EENSt15regex_constants15match_flag_typeE, .-_ZSt12regex_searchISt11char_traitsIcESaIcESaINSt7__cxx119sub_matchIN9__gnu_cxx17__normal_iteratorIPKcNS3_12basic_stringIcS1_S2_EEEEEEEcNS3_12regex_traitsIcEEEbRKNS9_IT2_T_T0_EERNS3_13match_resultsINSJ_14const_iteratorET1_EERKNS3_11basic_regexISG_T3_EENSt15regex_constants15match_flag_typeE
	.section	.text._ZNKSt7__cxx1113match_resultsIN9__gnu_cxx17__normal_iteratorIPKcNS_12basic_stringIcSt11char_traitsIcESaIcEEEEESaINS_9sub_matchISA_EEEE8positionEm,"axG",@progbits,_ZNKSt7__cxx1113match_resultsIN9__gnu_cxx17__normal_iteratorIPKcNS_12basic_stringIcSt11char_traitsIcESaIcEEEEESaINS_9sub_matchISA_EEEE8positionEm,comdat
	.align 2
	.weak	_ZNKSt7__cxx1113match_resultsIN9__gnu_cxx17__normal_iteratorIPKcNS_12basic_stringIcSt11char_traitsIcESaIcEEEEESaINS_9sub_matchISA_EEEE8positionEm
	.type	_ZNKSt7__cxx1113match_resultsIN9__gnu_cxx17__normal_iteratorIPKcNS_12basic_stringIcSt11char_traitsIcESaIcEEEEESaINS_9sub_matchISA_EEEE8positionEm, @function
_ZNKSt7__cxx1113match_resultsIN9__gnu_cxx17__normal_iteratorIPKcNS_12basic_stringIcSt11char_traitsIcESaIcEEEEESaINS_9sub_matchISA_EEEE8positionEm:
.LFB5576:
	.cfi_startproc
	endbr64
	pushq	%rbp
	.cfi_def_cfa_offset 16
	.cfi_offset 6, -16
	movq	%rsp, %rbp
	.cfi_def_cfa_register 6
	subq	$16, %rsp
	movq	%rdi, -8(%rbp)
	movq	%rsi, -16(%rbp)
	movq	-16(%rbp), %rdx
	movq	-8(%rbp), %rax
	movq	%rdx, %rsi
	movq	%rax, %rdi
	call	_ZNKSt7__cxx1113match_resultsIN9__gnu_cxx17__normal_iteratorIPKcNS_12basic_stringIcSt11char_traitsIcESaIcEEEEESaINS_9sub_matchISA_EEEEixEm
	movq	%rax, %rdx
	movq	-8(%rbp), %rax
	movq	24(%rax), %rax
	movq	(%rdx), %rsi
	movq	%rax, %rdi
	call	_ZSt8distanceIN9__gnu_cxx17__normal_iteratorIPKcNSt7__cxx1112basic_stringIcSt11char_traitsIcESaIcEEEEEENSt15iterator_traitsIT_E15difference_typeESC_SC_
	leave
	.cfi_def_cfa 7, 8
	ret
	.cfi_endproc
.LFE5576:
	.size	_ZNKSt7__cxx1113match_resultsIN9__gnu_cxx17__normal_iteratorIPKcNS_12basic_stringIcSt11char_traitsIcESaIcEEEEESaINS_9sub_matchISA_EEEE8positionEm, .-_ZNKSt7__cxx1113match_resultsIN9__gnu_cxx17__normal_iteratorIPKcNS_12basic_stringIcSt11char_traitsIcESaIcEEEEESaINS_9sub_matchISA_EEEE8positionEm
	.section	.text._ZNKSt7__cxx1113match_resultsIN9__gnu_cxx17__normal_iteratorIPKcNS_12basic_stringIcSt11char_traitsIcESaIcEEEEESaINS_9sub_matchISA_EEEE6lengthEm,"axG",@progbits,_ZNKSt7__cxx1113match_resultsIN9__gnu_cxx17__normal_iteratorIPKcNS_12basic_stringIcSt11char_traitsIcESaIcEEEEESaINS_9sub_matchISA_EEEE6lengthEm,comdat
	.align 2
	.weak	_ZNKSt7__cxx1113match_resultsIN9__gnu_cxx17__normal_iteratorIPKcNS_12basic_stringIcSt11char_traitsIcESaIcEEEEESaINS_9sub_matchISA_EEEE6lengthEm
	.type	_ZNKSt7__cxx1113match_resultsIN9__gnu_cxx17__normal_iteratorIPKcNS_12basic_stringIcSt11char_traitsIcESaIcEEEEESaINS_9sub_matchISA_EEEE6lengthEm, @function
_ZNKSt7__cxx1113match_resultsIN9__gnu_cxx17__normal_iteratorIPKcNS_12basic_stringIcSt11char_traitsIcESaIcEEEEESaINS_9sub_matchISA_EEEE6lengthEm:
.LFB5577:
	.cfi_startproc
	endbr64
	pushq	%rbp
	.cfi_def_cfa_offset 16
	.cfi_offset 6, -16
	movq	%rsp, %rbp
	.cfi_def_cfa_register 6
	subq	$16, %rsp
	movq	%rdi, -8(%rbp)
	movq	%rsi, -16(%rbp)
	movq	-16(%rbp), %rdx
	movq	-8(%rbp), %rax
	movq	%rdx, %rsi
	movq	%rax, %rdi
	call	_ZNKSt7__cxx1113match_resultsIN9__gnu_cxx17__normal_iteratorIPKcNS_12basic_stringIcSt11char_traitsIcESaIcEEEEESaINS_9sub_matchISA_EEEEixEm
	movq	%rax, %rdi
	call	_ZNKSt7__cxx119sub_matchIN9__gnu_cxx17__normal_iteratorIPKcNS_12basic_stringIcSt11char_traitsIcESaIcEEEEEE6lengthEv
	leave
	.cfi_def_cfa 7, 8
	ret
	.cfi_endproc
.LFE5577:
	.size	_ZNKSt7__cxx1113match_resultsIN9__gnu_cxx17__normal_iteratorIPKcNS_12basic_stringIcSt11char_traitsIcESaIcEEEEESaINS_9sub_matchISA_EEEE6lengthEm, .-_ZNKSt7__cxx1113match_resultsIN9__gnu_cxx17__normal_iteratorIPKcNS_12basic_stringIcSt11char_traitsIcESaIcEEEEESaINS_9sub_matchISA_EEEE6lengthEm
	.section	.text._ZStneIcSt11char_traitsIcESaIcEEbRKNSt7__cxx1112basic_stringIT_T0_T1_EEPKS5_,"axG",@progbits,_ZStneIcSt11char_traitsIcESaIcEEbRKNSt7__cxx1112basic_stringIT_T0_T1_EEPKS5_,comdat
	.weak	_ZStneIcSt11char_traitsIcESaIcEEbRKNSt7__cxx1112basic_stringIT_T0_T1_EEPKS5_
	.type	_ZStneIcSt11char_traitsIcESaIcEEbRKNSt7__cxx1112basic_stringIT_T0_T1_EEPKS5_, @function
_ZStneIcSt11char_traitsIcESaIcEEbRKNSt7__cxx1112basic_stringIT_T0_T1_EEPKS5_:
.LFB5578:
	.cfi_startproc
	endbr64
	pushq	%rbp
	.cfi_def_cfa_offset 16
	.cfi_offset 6, -16
	movq	%rsp, %rbp
	.cfi_def_cfa_register 6
	subq	$16, %rsp
	movq	%rdi, -8(%rbp)
	movq	%rsi, -16(%rbp)
	movq	-16(%rbp), %rdx
	movq	-8(%rbp), %rax
	movq	%rdx, %rsi
	movq	%rax, %rdi
	call	_ZSteqIcSt11char_traitsIcESaIcEEbRKNSt7__cxx1112basic_stringIT_T0_T1_EEPKS5_
	xorl	$1, %eax
	leave
	.cfi_def_cfa 7, 8
	ret
	.cfi_endproc
.LFE5578:
	.size	_ZStneIcSt11char_traitsIcESaIcEEbRKNSt7__cxx1112basic_stringIT_T0_T1_EEPKS5_, .-_ZStneIcSt11char_traitsIcESaIcEEbRKNSt7__cxx1112basic_stringIT_T0_T1_EEPKS5_
	.section	.text._ZNKSt7__cxx1113match_resultsIN9__gnu_cxx17__normal_iteratorIPKcNS_12basic_stringIcSt11char_traitsIcESaIcEEEEESaINS_9sub_matchISA_EEEE3strEm,"axG",@progbits,_ZNKSt7__cxx1113match_resultsIN9__gnu_cxx17__normal_iteratorIPKcNS_12basic_stringIcSt11char_traitsIcESaIcEEEEESaINS_9sub_matchISA_EEEE3strEm,comdat
	.align 2
	.weak	_ZNKSt7__cxx1113match_resultsIN9__gnu_cxx17__normal_iteratorIPKcNS_12basic_stringIcSt11char_traitsIcESaIcEEEEESaINS_9sub_matchISA_EEEE3strEm
	.type	_ZNKSt7__cxx1113match_resultsIN9__gnu_cxx17__normal_iteratorIPKcNS_12basic_stringIcSt11char_traitsIcESaIcEEEEESaINS_9sub_matchISA_EEEE3strEm, @function
_ZNKSt7__cxx1113match_resultsIN9__gnu_cxx17__normal_iteratorIPKcNS_12basic_stringIcSt11char_traitsIcESaIcEEEEESaINS_9sub_matchISA_EEEE3strEm:
.LFB5579:
	.cfi_startproc
	endbr64
	pushq	%rbp
	.cfi_def_cfa_offset 16
	.cfi_offset 6, -16
	movq	%rsp, %rbp
	.cfi_def_cfa_register 6
	subq	$48, %rsp
	movq	%rdi, -24(%rbp)
	movq	%rsi, -32(%rbp)
	movq	%rdx, -40(%rbp)
	movq	%fs:40, %rax
	movq	%rax, -8(%rbp)
	xorl	%eax, %eax
	movq	-40(%rbp), %rdx
	movq	-32(%rbp), %rax
	movq	%rdx, %rsi
	movq	%rax, %rdi
	call	_ZNKSt7__cxx1113match_resultsIN9__gnu_cxx17__normal_iteratorIPKcNS_12basic_stringIcSt11char_traitsIcESaIcEEEEESaINS_9sub_matchISA_EEEEixEm
	movq	%rax, %rdx
	movq	-24(%rbp), %rax
	movq	%rdx, %rsi
	movq	%rax, %rdi
	call	_ZNKSt7__cxx119sub_matchIN9__gnu_cxx17__normal_iteratorIPKcNS_12basic_stringIcSt11char_traitsIcESaIcEEEEEEcvS9_Ev
	movq	-8(%rbp), %rax
	subq	%fs:40, %rax
	je	.L436
	call	__stack_chk_fail@PLT
.L436:
	movq	-24(%rbp), %rax
	leave
	.cfi_def_cfa 7, 8
	ret
	.cfi_endproc
.LFE5579:
	.size	_ZNKSt7__cxx1113match_resultsIN9__gnu_cxx17__normal_iteratorIPKcNS_12basic_stringIcSt11char_traitsIcESaIcEEEEESaINS_9sub_matchISA_EEEE3strEm, .-_ZNKSt7__cxx1113match_resultsIN9__gnu_cxx17__normal_iteratorIPKcNS_12basic_stringIcSt11char_traitsIcESaIcEEEEESaINS_9sub_matchISA_EEEE3strEm
	.section	.text._ZNSt6vectorI5TokenSaIS0_EE9push_backEOS0_,"axG",@progbits,_ZNSt6vectorI5TokenSaIS0_EE9push_backEOS0_,comdat
	.align 2
	.weak	_ZNSt6vectorI5TokenSaIS0_EE9push_backEOS0_
	.type	_ZNSt6vectorI5TokenSaIS0_EE9push_backEOS0_, @function
_ZNSt6vectorI5TokenSaIS0_EE9push_backEOS0_:
.LFB5580:
	.cfi_startproc
	endbr64
	pushq	%rbp
	.cfi_def_cfa_offset 16
	.cfi_offset 6, -16
	movq	%rsp, %rbp
	.cfi_def_cfa_register 6
	subq	$16, %rsp
	movq	%rdi, -8(%rbp)
	movq	%rsi, -16(%rbp)
	movq	-16(%rbp), %rax
	movq	%rax, %rdi
	call	_ZSt4moveIR5TokenEONSt16remove_referenceIT_E4typeEOS3_
	movq	%rax, %rdx
	movq	-8(%rbp), %rax
	movq	%rdx, %rsi
	movq	%rax, %rdi
	call	_ZNSt6vectorI5TokenSaIS0_EE12emplace_backIJS0_EEERS0_DpOT_
	nop
	leave
	.cfi_def_cfa 7, 8
	ret
	.cfi_endproc
.LFE5580:
	.size	_ZNSt6vectorI5TokenSaIS0_EE9push_backEOS0_, .-_ZNSt6vectorI5TokenSaIS0_EE9push_backEOS0_
	.text
	.type	_ZSt8count_ifIN9__gnu_cxx17__normal_iteratorIPcNSt7__cxx1112basic_stringIcSt11char_traitsIcESaIcEEEEEZ3lexS8_EUlcE_ENSt15iterator_traitsIT_E15difference_typeESC_SC_T0_, @function
_ZSt8count_ifIN9__gnu_cxx17__normal_iteratorIPcNSt7__cxx1112basic_stringIcSt11char_traitsIcESaIcEEEEEZ3lexS8_EUlcE_ENSt15iterator_traitsIT_E15difference_typeESC_SC_T0_:
.LFB5583:
	.cfi_startproc
	pushq	%rbp
	.cfi_def_cfa_offset 16
	.cfi_offset 6, -16
	movq	%rsp, %rbp
	.cfi_def_cfa_register 6
	subq	$32, %rsp
	movq	%rdi, -8(%rbp)
	movq	%rsi, -16(%rbp)
	call	_ZN9__gnu_cxx5__ops11__pred_iterIZ3lexNSt7__cxx1112basic_stringIcSt11char_traitsIcESaIcEEEEUlcE_EENS0_10_Iter_predIT_EESA_
	movq	-16(%rbp), %rdx
	movq	-8(%rbp), %rax
	movq	%rdx, %rsi
	movq	%rax, %rdi
	call	_ZSt10__count_ifIN9__gnu_cxx17__normal_iteratorIPcNSt7__cxx1112basic_stringIcSt11char_traitsIcESaIcEEEEENS0_5__ops10_Iter_predIZ3lexS8_EUlcE_EEENSt15iterator_traitsIT_E15difference_typeESF_SF_T0_
	leave
	.cfi_def_cfa 7, 8
	ret
	.cfi_endproc
.LFE5583:
	.size	_ZSt8count_ifIN9__gnu_cxx17__normal_iteratorIPcNSt7__cxx1112basic_stringIcSt11char_traitsIcESaIcEEEEEZ3lexS8_EUlcE_ENSt15iterator_traitsIT_E15difference_typeESC_SC_T0_, .-_ZSt8count_ifIN9__gnu_cxx17__normal_iteratorIPcNSt7__cxx1112basic_stringIcSt11char_traitsIcESaIcEEEEEZ3lexS8_EUlcE_ENSt15iterator_traitsIT_E15difference_typeESC_SC_T0_
	.section	.text._ZNKSt7__cxx1113match_resultsIN9__gnu_cxx17__normal_iteratorIPKcNS_12basic_stringIcSt11char_traitsIcESaIcEEEEESaINS_9sub_matchISA_EEEE6suffixEv,"axG",@progbits,_ZNKSt7__cxx1113match_resultsIN9__gnu_cxx17__normal_iteratorIPKcNS_12basic_stringIcSt11char_traitsIcESaIcEEEEESaINS_9sub_matchISA_EEEE6suffixEv,comdat
	.align 2
	.weak	_ZNKSt7__cxx1113match_resultsIN9__gnu_cxx17__normal_iteratorIPKcNS_12basic_stringIcSt11char_traitsIcESaIcEEEEESaINS_9sub_matchISA_EEEE6suffixEv
	.type	_ZNKSt7__cxx1113match_resultsIN9__gnu_cxx17__normal_iteratorIPKcNS_12basic_stringIcSt11char_traitsIcESaIcEEEEESaINS_9sub_matchISA_EEEE6suffixEv, @function
_ZNKSt7__cxx1113match_resultsIN9__gnu_cxx17__normal_iteratorIPKcNS_12basic_stringIcSt11char_traitsIcESaIcEEEEESaINS_9sub_matchISA_EEEE6suffixEv:
.LFB5584:
	.cfi_startproc
	endbr64
	pushq	%rbp
	.cfi_def_cfa_offset 16
	.cfi_offset 6, -16
	movq	%rsp, %rbp
	.cfi_def_cfa_register 6
	subq	$16, %rsp
	movq	%rdi, -8(%rbp)
	movl	$0, %eax
	testb	%al, %al
	movq	-8(%rbp), %rax
	movq	%rax, %rdi
	call	_ZNKSt7__cxx1113match_resultsIN9__gnu_cxx17__normal_iteratorIPKcNS_12basic_stringIcSt11char_traitsIcESaIcEEEEESaINS_9sub_matchISA_EEEE5emptyEv
	xorl	$1, %eax
	testb	%al, %al
	je	.L442
	movq	-8(%rbp), %rax
	movq	%rax, %rdi
	call	_ZNKSt7__cxx1113match_resultsIN9__gnu_cxx17__normal_iteratorIPKcNS_12basic_stringIcSt11char_traitsIcESaIcEEEEESaINS_9sub_matchISA_EEEE9_M_suffixEv
	jmp	.L444
.L442:
	movq	-8(%rbp), %rax
	movq	%rax, %rdi
	call	_ZNKSt7__cxx1113match_resultsIN9__gnu_cxx17__normal_iteratorIPKcNS_12basic_stringIcSt11char_traitsIcESaIcEEEEESaINS_9sub_matchISA_EEEE16_M_unmatched_subEv
.L444:
	leave
	.cfi_def_cfa 7, 8
	ret
	.cfi_endproc
.LFE5584:
	.size	_ZNKSt7__cxx1113match_resultsIN9__gnu_cxx17__normal_iteratorIPKcNS_12basic_stringIcSt11char_traitsIcESaIcEEEEESaINS_9sub_matchISA_EEEE6suffixEv, .-_ZNKSt7__cxx1113match_resultsIN9__gnu_cxx17__normal_iteratorIPKcNS_12basic_stringIcSt11char_traitsIcESaIcEEEEESaINS_9sub_matchISA_EEEE6suffixEv
	.section	.text._ZNKSt7__cxx119sub_matchIN9__gnu_cxx17__normal_iteratorIPKcNS_12basic_stringIcSt11char_traitsIcESaIcEEEEEEcvS9_Ev,"axG",@progbits,_ZNKSt7__cxx119sub_matchIN9__gnu_cxx17__normal_iteratorIPKcNS_12basic_stringIcSt11char_traitsIcESaIcEEEEEEcvS9_Ev,comdat
	.align 2
	.weak	_ZNKSt7__cxx119sub_matchIN9__gnu_cxx17__normal_iteratorIPKcNS_12basic_stringIcSt11char_traitsIcESaIcEEEEEEcvS9_Ev
	.type	_ZNKSt7__cxx119sub_matchIN9__gnu_cxx17__normal_iteratorIPKcNS_12basic_stringIcSt11char_traitsIcESaIcEEEEEEcvS9_Ev, @function
_ZNKSt7__cxx119sub_matchIN9__gnu_cxx17__normal_iteratorIPKcNS_12basic_stringIcSt11char_traitsIcESaIcEEEEEEcvS9_Ev:
.LFB5585:
	.cfi_startproc
	endbr64
	pushq	%rbp
	.cfi_def_cfa_offset 16
	.cfi_offset 6, -16
	movq	%rsp, %rbp
	.cfi_def_cfa_register 6
	subq	$32, %rsp
	movq	%rdi, -24(%rbp)
	movq	%rsi, -32(%rbp)
	movq	%fs:40, %rax
	movq	%rax, -8(%rbp)
	xorl	%eax, %eax
	movq	-24(%rbp), %rax
	movq	-32(%rbp), %rdx
	movq	%rdx, %rsi
	movq	%rax, %rdi
	call	_ZNKSt7__cxx119sub_matchIN9__gnu_cxx17__normal_iteratorIPKcNS_12basic_stringIcSt11char_traitsIcESaIcEEEEEE3strEv
	movq	-8(%rbp), %rax
	subq	%fs:40, %rax
	je	.L447
	call	__stack_chk_fail@PLT
.L447:
	movq	-24(%rbp), %rax
	leave
	.cfi_def_cfa 7, 8
	ret
	.cfi_endproc
.LFE5585:
	.size	_ZNKSt7__cxx119sub_matchIN9__gnu_cxx17__normal_iteratorIPKcNS_12basic_stringIcSt11char_traitsIcESaIcEEEEEEcvS9_Ev, .-_ZNKSt7__cxx119sub_matchIN9__gnu_cxx17__normal_iteratorIPKcNS_12basic_stringIcSt11char_traitsIcESaIcEEEEEEcvS9_Ev
	.section	.text._ZSt11__addressofINSt7__cxx1112basic_stringIcSt11char_traitsIcESaIcEEEEPT_RS6_,"axG",@progbits,_ZSt11__addressofINSt7__cxx1112basic_stringIcSt11char_traitsIcESaIcEEEEPT_RS6_,comdat
	.weak	_ZSt11__addressofINSt7__cxx1112basic_stringIcSt11char_traitsIcESaIcEEEEPT_RS6_
	.type	_ZSt11__addressofINSt7__cxx1112basic_stringIcSt11char_traitsIcESaIcEEEEPT_RS6_, @function
_ZSt11__addressofINSt7__cxx1112basic_stringIcSt11char_traitsIcESaIcEEEEPT_RS6_:
.LFB5587:
	.cfi_startproc
	endbr64
	pushq	%rbp
	.cfi_def_cfa_offset 16
	.cfi_offset 6, -16
	movq	%rsp, %rbp
	.cfi_def_cfa_register 6
	movq	%rdi, -8(%rbp)
	movq	-8(%rbp), %rax
	popq	%rbp
	.cfi_def_cfa 7, 8
	ret
	.cfi_endproc
.LFE5587:
	.size	_ZSt11__addressofINSt7__cxx1112basic_stringIcSt11char_traitsIcESaIcEEEEPT_RS6_, .-_ZSt11__addressofINSt7__cxx1112basic_stringIcSt11char_traitsIcESaIcEEEEPT_RS6_
	.section	.text._ZNSt12_Vector_baseI5TokenSaIS0_EE12_Vector_implC2EOS3_,"axG",@progbits,_ZNSt12_Vector_baseI5TokenSaIS0_EE12_Vector_implC5EOS3_,comdat
	.align 2
	.weak	_ZNSt12_Vector_baseI5TokenSaIS0_EE12_Vector_implC2EOS3_
	.type	_ZNSt12_Vector_baseI5TokenSaIS0_EE12_Vector_implC2EOS3_, @function
_ZNSt12_Vector_baseI5TokenSaIS0_EE12_Vector_implC2EOS3_:
.LFB5589:
	.cfi_startproc
	endbr64
	pushq	%rbp
	.cfi_def_cfa_offset 16
	.cfi_offset 6, -16
	movq	%rsp, %rbp
	.cfi_def_cfa_register 6
	pushq	%rbx
	subq	$24, %rsp
	.cfi_offset 3, -24
	movq	%rdi, -24(%rbp)
	movq	%rsi, -32(%rbp)
	movq	-32(%rbp), %rax
	movq	%rax, %rdi
	call	_ZSt4moveIRNSt12_Vector_baseI5TokenSaIS1_EE12_Vector_implEEONSt16remove_referenceIT_E4typeEOS7_
	movq	%rax, %rdx
	movq	-24(%rbp), %rax
	movq	%rdx, %rsi
	movq	%rax, %rdi
	call	_ZNSaI5TokenEC2ERKS0_
	movq	-24(%rbp), %rbx
	movq	-32(%rbp), %rax
	movq	%rax, %rdi
	call	_ZSt4moveIRNSt12_Vector_baseI5TokenSaIS1_EE12_Vector_implEEONSt16remove_referenceIT_E4typeEOS7_
	movq	%rax, %rsi
	movq	%rbx, %rdi
	call	_ZNSt12_Vector_baseI5TokenSaIS0_EE17_Vector_impl_dataC2EOS3_
	nop
	movq	-8(%rbp), %rbx
	leave
	.cfi_def_cfa 7, 8
	ret
	.cfi_endproc
.LFE5589:
	.size	_ZNSt12_Vector_baseI5TokenSaIS0_EE12_Vector_implC2EOS3_, .-_ZNSt12_Vector_baseI5TokenSaIS0_EE12_Vector_implC2EOS3_
	.weak	_ZNSt12_Vector_baseI5TokenSaIS0_EE12_Vector_implC1EOS3_
	.set	_ZNSt12_Vector_baseI5TokenSaIS0_EE12_Vector_implC1EOS3_,_ZNSt12_Vector_baseI5TokenSaIS0_EE12_Vector_implC2EOS3_
	.section	.text._ZNSt7__cxx1112basic_stringIcSt11char_traitsIcESaIcEEC2IS3_EEPKcRKS3_,"axG",@progbits,_ZNSt7__cxx1112basic_stringIcSt11char_traitsIcESaIcEEC5IS3_EEPKcRKS3_,comdat
	.align 2
	.weak	_ZNSt7__cxx1112basic_stringIcSt11char_traitsIcESaIcEEC2IS3_EEPKcRKS3_
	.type	_ZNSt7__cxx1112basic_stringIcSt11char_traitsIcESaIcEEC2IS3_EEPKcRKS3_, @function
_ZNSt7__cxx1112basic_stringIcSt11char_traitsIcESaIcEEC2IS3_EEPKcRKS3_:
.LFB5592:
	.cfi_startproc
	.cfi_personality 0x9b,DW.ref.__gxx_personality_v0
	.cfi_lsda 0x1b,.LLSDA5592
	endbr64
	pushq	%rbp
	.cfi_def_cfa_offset 16
	.cfi_offset 6, -16
	movq	%rsp, %rbp
	.cfi_def_cfa_register 6
	pushq	%rbx
	subq	$72, %rsp
	.cfi_offset 3, -24
	movq	%rdi, -56(%rbp)
	movq	%rsi, -64(%rbp)
	movq	%rdx, -72(%rbp)
	movq	%fs:40, %rax
	movq	%rax, -24(%rbp)
	xorl	%eax, %eax
	movq	-56(%rbp), %rbx
	movq	-56(%rbp), %rax
	movq	%rax, %rdi
.LEHB64:
	call	_ZNSt7__cxx1112basic_stringIcSt11char_traitsIcESaIcEE13_M_local_dataEv@PLT
	movq	%rax, %rcx
	movq	-72(%rbp), %rax
	movq	%rax, %rdx
	movq	%rcx, %rsi
	movq	%rbx, %rdi
	call	_ZNSt7__cxx1112basic_stringIcSt11char_traitsIcESaIcEE12_Alloc_hiderC1EPcRKS3_@PLT
.LEHE64:
	cmpq	$0, -64(%rbp)
	je	.L452
	movq	-64(%rbp), %rax
	movq	%rax, %rdi
.LEHB65:
	call	_ZNSt11char_traitsIcE6lengthEPKc
	movq	-64(%rbp), %rdx
	addq	%rdx, %rax
	jmp	.L453
.L452:
	movl	$1, %eax
.L453:
	movq	%rax, -32(%rbp)
	movq	-32(%rbp), %rdx
	movq	-64(%rbp), %rcx
	movq	-56(%rbp), %rax
	movq	%rcx, %rsi
	movq	%rax, %rdi
	call	_ZNSt7__cxx1112basic_stringIcSt11char_traitsIcESaIcEE12_M_constructIPKcEEvT_S8_St20forward_iterator_tag
.LEHE65:
	jmp	.L457
.L456:
	endbr64
	movq	%rax, %rbx
	movq	-56(%rbp), %rax
	movq	%rax, %rdi
	call	_ZNSt7__cxx1112basic_stringIcSt11char_traitsIcESaIcEE12_Alloc_hiderD1Ev
	movq	%rbx, %rax
	movq	%rax, %rdi
.LEHB66:
	call	_Unwind_Resume@PLT
.LEHE66:
.L457:
	movq	-24(%rbp), %rax
	subq	%fs:40, %rax
	je	.L455
	call	__stack_chk_fail@PLT
.L455:
	movq	-8(%rbp), %rbx
	leave
	.cfi_def_cfa 7, 8
	ret
	.cfi_endproc
.LFE5592:
	.section	.gcc_except_table
.LLSDA5592:
	.byte	0xff
	.byte	0xff
	.byte	0x1
	.uleb128 .LLSDACSE5592-.LLSDACSB5592
.LLSDACSB5592:
	.uleb128 .LEHB64-.LFB5592
	.uleb128 .LEHE64-.LEHB64
	.uleb128 0
	.uleb128 0
	.uleb128 .LEHB65-.LFB5592
	.uleb128 .LEHE65-.LEHB65
	.uleb128 .L456-.LFB5592
	.uleb128 0
	.uleb128 .LEHB66-.LFB5592
	.uleb128 .LEHE66-.LEHB66
	.uleb128 0
	.uleb128 0
.LLSDACSE5592:
	.section	.text._ZNSt7__cxx1112basic_stringIcSt11char_traitsIcESaIcEEC2IS3_EEPKcRKS3_,"axG",@progbits,_ZNSt7__cxx1112basic_stringIcSt11char_traitsIcESaIcEEC5IS3_EEPKcRKS3_,comdat
	.size	_ZNSt7__cxx1112basic_stringIcSt11char_traitsIcESaIcEEC2IS3_EEPKcRKS3_, .-_ZNSt7__cxx1112basic_stringIcSt11char_traitsIcESaIcEEC2IS3_EEPKcRKS3_
	.weak	_ZNSt7__cxx1112basic_stringIcSt11char_traitsIcESaIcEEC1IS3_EEPKcRKS3_
	.set	_ZNSt7__cxx1112basic_stringIcSt11char_traitsIcESaIcEEC1IS3_EEPKcRKS3_,_ZNSt7__cxx1112basic_stringIcSt11char_traitsIcESaIcEEC2IS3_EEPKcRKS3_
	.section	.text._ZNSt6vectorI6LexemeSaIS0_EE9push_backEOS0_,"axG",@progbits,_ZNSt6vectorI6LexemeSaIS0_EE9push_backEOS0_,comdat
	.align 2
	.weak	_ZNSt6vectorI6LexemeSaIS0_EE9push_backEOS0_
	.type	_ZNSt6vectorI6LexemeSaIS0_EE9push_backEOS0_, @function
_ZNSt6vectorI6LexemeSaIS0_EE9push_backEOS0_:
.LFB5594:
	.cfi_startproc
	endbr64
	pushq	%rbp
	.cfi_def_cfa_offset 16
	.cfi_offset 6, -16
	movq	%rsp, %rbp
	.cfi_def_cfa_register 6
	subq	$16, %rsp
	movq	%rdi, -8(%rbp)
	movq	%rsi, -16(%rbp)
	movq	-16(%rbp), %rax
	movq	%rax, %rdi
	call	_ZSt4moveIR6LexemeEONSt16remove_referenceIT_E4typeEOS3_
	movq	%rax, %rdx
	movq	-8(%rbp), %rax
	movq	%rdx, %rsi
	movq	%rax, %rdi
	call	_ZNSt6vectorI6LexemeSaIS0_EE12emplace_backIJS0_EEERS0_DpOT_
	nop
	leave
	.cfi_def_cfa 7, 8
	ret
	.cfi_endproc
.LFE5594:
	.size	_ZNSt6vectorI6LexemeSaIS0_EE9push_backEOS0_, .-_ZNSt6vectorI6LexemeSaIS0_EE9push_backEOS0_
	.section	.text._ZN9__gnu_cxxneIP5TokenSt6vectorIS1_SaIS1_EEEEbRKNS_17__normal_iteratorIT_T0_EESB_,"axG",@progbits,_ZN9__gnu_cxxneIP5TokenSt6vectorIS1_SaIS1_EEEEbRKNS_17__normal_iteratorIT_T0_EESB_,comdat
	.weak	_ZN9__gnu_cxxneIP5TokenSt6vectorIS1_SaIS1_EEEEbRKNS_17__normal_iteratorIT_T0_EESB_
	.type	_ZN9__gnu_cxxneIP5TokenSt6vectorIS1_SaIS1_EEEEbRKNS_17__normal_iteratorIT_T0_EESB_, @function
_ZN9__gnu_cxxneIP5TokenSt6vectorIS1_SaIS1_EEEEbRKNS_17__normal_iteratorIT_T0_EESB_:
.LFB5595:
	.cfi_startproc
	endbr64
	pushq	%rbp
	.cfi_def_cfa_offset 16
	.cfi_offset 6, -16
	movq	%rsp, %rbp
	.cfi_def_cfa_register 6
	pushq	%rbx
	subq	$24, %rsp
	.cfi_offset 3, -24
	movq	%rdi, -24(%rbp)
	movq	%rsi, -32(%rbp)
	movq	-24(%rbp), %rax
	movq	%rax, %rdi
	call	_ZNK9__gnu_cxx17__normal_iteratorIP5TokenSt6vectorIS1_SaIS1_EEE4baseEv
	movq	(%rax), %rbx
	movq	-32(%rbp), %rax
	movq	%rax, %rdi
	call	_ZNK9__gnu_cxx17__normal_iteratorIP5TokenSt6vectorIS1_SaIS1_EEE4baseEv
	movq	(%rax), %rax
	cmpq	%rax, %rbx
	setne	%al
	movq	-8(%rbp), %rbx
	leave
	.cfi_def_cfa 7, 8
	ret
	.cfi_endproc
.LFE5595:
	.size	_ZN9__gnu_cxxneIP5TokenSt6vectorIS1_SaIS1_EEEEbRKNS_17__normal_iteratorIT_T0_EESB_, .-_ZN9__gnu_cxxneIP5TokenSt6vectorIS1_SaIS1_EEEEbRKNS_17__normal_iteratorIT_T0_EESB_
	.section	.text._ZN9__gnu_cxxeqIP5TokenSt6vectorIS1_SaIS1_EEEEbRKNS_17__normal_iteratorIT_T0_EESB_,"axG",@progbits,_ZN9__gnu_cxxeqIP5TokenSt6vectorIS1_SaIS1_EEEEbRKNS_17__normal_iteratorIT_T0_EESB_,comdat
	.weak	_ZN9__gnu_cxxeqIP5TokenSt6vectorIS1_SaIS1_EEEEbRKNS_17__normal_iteratorIT_T0_EESB_
	.type	_ZN9__gnu_cxxeqIP5TokenSt6vectorIS1_SaIS1_EEEEbRKNS_17__normal_iteratorIT_T0_EESB_, @function
_ZN9__gnu_cxxeqIP5TokenSt6vectorIS1_SaIS1_EEEEbRKNS_17__normal_iteratorIT_T0_EESB_:
.LFB5596:
	.cfi_startproc
	endbr64
	pushq	%rbp
	.cfi_def_cfa_offset 16
	.cfi_offset 6, -16
	movq	%rsp, %rbp
	.cfi_def_cfa_register 6
	pushq	%rbx
	subq	$24, %rsp
	.cfi_offset 3, -24
	movq	%rdi, -24(%rbp)
	movq	%rsi, -32(%rbp)
	movq	-24(%rbp), %rax
	movq	%rax, %rdi
	call	_ZNK9__gnu_cxx17__normal_iteratorIP5TokenSt6vectorIS1_SaIS1_EEE4baseEv
	movq	(%rax), %rbx
	movq	-32(%rbp), %rax
	movq	%rax, %rdi
	call	_ZNK9__gnu_cxx17__normal_iteratorIP5TokenSt6vectorIS1_SaIS1_EEE4baseEv
	movq	(%rax), %rax
	cmpq	%rax, %rbx
	sete	%al
	movq	-8(%rbp), %rbx
	leave
	.cfi_def_cfa 7, 8
	ret
	.cfi_endproc
.LFE5596:
	.size	_ZN9__gnu_cxxeqIP5TokenSt6vectorIS1_SaIS1_EEEEbRKNS_17__normal_iteratorIT_T0_EESB_, .-_ZN9__gnu_cxxeqIP5TokenSt6vectorIS1_SaIS1_EEEEbRKNS_17__normal_iteratorIT_T0_EESB_
	.section	.text._ZNK9__gnu_cxx17__normal_iteratorIP5TokenSt6vectorIS1_SaIS1_EEEptEv,"axG",@progbits,_ZNK9__gnu_cxx17__normal_iteratorIP5TokenSt6vectorIS1_SaIS1_EEEptEv,comdat
	.align 2
	.weak	_ZNK9__gnu_cxx17__normal_iteratorIP5TokenSt6vectorIS1_SaIS1_EEEptEv
	.type	_ZNK9__gnu_cxx17__normal_iteratorIP5TokenSt6vectorIS1_SaIS1_EEEptEv, @function
_ZNK9__gnu_cxx17__normal_iteratorIP5TokenSt6vectorIS1_SaIS1_EEEptEv:
.LFB5597:
	.cfi_startproc
	endbr64
	pushq	%rbp
	.cfi_def_cfa_offset 16
	.cfi_offset 6, -16
	movq	%rsp, %rbp
	.cfi_def_cfa_register 6
	movq	%rdi, -8(%rbp)
	movq	-8(%rbp), %rax
	movq	(%rax), %rax
	popq	%rbp
	.cfi_def_cfa 7, 8
	ret
	.cfi_endproc
.LFE5597:
	.size	_ZNK9__gnu_cxx17__normal_iteratorIP5TokenSt6vectorIS1_SaIS1_EEEptEv, .-_ZNK9__gnu_cxx17__normal_iteratorIP5TokenSt6vectorIS1_SaIS1_EEEptEv
	.section	.text._ZStneIcSt11char_traitsIcESaIcEEbRKNSt7__cxx1112basic_stringIT_T0_T1_EESA_,"axG",@progbits,_ZStneIcSt11char_traitsIcESaIcEEbRKNSt7__cxx1112basic_stringIT_T0_T1_EESA_,comdat
	.weak	_ZStneIcSt11char_traitsIcESaIcEEbRKNSt7__cxx1112basic_stringIT_T0_T1_EESA_
	.type	_ZStneIcSt11char_traitsIcESaIcEEbRKNSt7__cxx1112basic_stringIT_T0_T1_EESA_, @function
_ZStneIcSt11char_traitsIcESaIcEEbRKNSt7__cxx1112basic_stringIT_T0_T1_EESA_:
.LFB5598:
	.cfi_startproc
	endbr64
	pushq	%rbp
	.cfi_def_cfa_offset 16
	.cfi_offset 6, -16
	movq	%rsp, %rbp
	.cfi_def_cfa_register 6
	subq	$16, %rsp
	movq	%rdi, -8(%rbp)
	movq	%rsi, -16(%rbp)
	movq	-16(%rbp), %rdx
	movq	-8(%rbp), %rax
	movq	%rdx, %rsi
	movq	%rax, %rdi
	call	_ZSteqIcEN9__gnu_cxx11__enable_ifIXsrSt9__is_charIT_E7__valueEbE6__typeERKNSt7__cxx1112basic_stringIS3_St11char_traitsIS3_ESaIS3_EEESE_
	xorl	$1, %eax
	leave
	.cfi_def_cfa 7, 8
	ret
	.cfi_endproc
.LFE5598:
	.size	_ZStneIcSt11char_traitsIcESaIcEEbRKNSt7__cxx1112basic_stringIT_T0_T1_EESA_, .-_ZStneIcSt11char_traitsIcESaIcEEbRKNSt7__cxx1112basic_stringIT_T0_T1_EESA_
	.section	.text._ZNK9__gnu_cxx17__normal_iteratorIP5TokenSt6vectorIS1_SaIS1_EEEdeEv,"axG",@progbits,_ZNK9__gnu_cxx17__normal_iteratorIP5TokenSt6vectorIS1_SaIS1_EEEdeEv,comdat
	.align 2
	.weak	_ZNK9__gnu_cxx17__normal_iteratorIP5TokenSt6vectorIS1_SaIS1_EEEdeEv
	.type	_ZNK9__gnu_cxx17__normal_iteratorIP5TokenSt6vectorIS1_SaIS1_EEEdeEv, @function
_ZNK9__gnu_cxx17__normal_iteratorIP5TokenSt6vectorIS1_SaIS1_EEEdeEv:
.LFB5599:
	.cfi_startproc
	endbr64
	pushq	%rbp
	.cfi_def_cfa_offset 16
	.cfi_offset 6, -16
	movq	%rsp, %rbp
	.cfi_def_cfa_register 6
	movq	%rdi, -8(%rbp)
	movq	-8(%rbp), %rax
	movq	(%rax), %rax
	popq	%rbp
	.cfi_def_cfa 7, 8
	ret
	.cfi_endproc
.LFE5599:
	.size	_ZNK9__gnu_cxx17__normal_iteratorIP5TokenSt6vectorIS1_SaIS1_EEEdeEv, .-_ZNK9__gnu_cxx17__normal_iteratorIP5TokenSt6vectorIS1_SaIS1_EEEdeEv
	.section	.text._ZN9__gnu_cxx14__alloc_traitsISaI5TokenES1_E27_S_propagate_on_copy_assignEv,"axG",@progbits,_ZN9__gnu_cxx14__alloc_traitsISaI5TokenES1_E27_S_propagate_on_copy_assignEv,comdat
	.weak	_ZN9__gnu_cxx14__alloc_traitsISaI5TokenES1_E27_S_propagate_on_copy_assignEv
	.type	_ZN9__gnu_cxx14__alloc_traitsISaI5TokenES1_E27_S_propagate_on_copy_assignEv, @function
_ZN9__gnu_cxx14__alloc_traitsISaI5TokenES1_E27_S_propagate_on_copy_assignEv:
.LFB5601:
	.cfi_startproc
	endbr64
	pushq	%rbp
	.cfi_def_cfa_offset 16
	.cfi_offset 6, -16
	movq	%rsp, %rbp
	.cfi_def_cfa_register 6
	movl	$0, %eax
	popq	%rbp
	.cfi_def_cfa 7, 8
	ret
	.cfi_endproc
.LFE5601:
	.size	_ZN9__gnu_cxx14__alloc_traitsISaI5TokenES1_E27_S_propagate_on_copy_assignEv, .-_ZN9__gnu_cxx14__alloc_traitsISaI5TokenES1_E27_S_propagate_on_copy_assignEv
	.section	.text._ZNSt6vectorI5TokenSaIS0_EEaSERKS2_,"axG",@progbits,_ZNSt6vectorI5TokenSaIS0_EEaSERKS2_,comdat
	.align 2
	.weak	_ZNSt6vectorI5TokenSaIS0_EEaSERKS2_
	.type	_ZNSt6vectorI5TokenSaIS0_EEaSERKS2_, @function
_ZNSt6vectorI5TokenSaIS0_EEaSERKS2_:
.LFB5600:
	.cfi_startproc
	endbr64
	pushq	%rbp
	.cfi_def_cfa_offset 16
	.cfi_offset 6, -16
	movq	%rsp, %rbp
	.cfi_def_cfa_register 6
	pushq	%r14
	pushq	%r13
	pushq	%r12
	pushq	%rbx
	subq	$32, %rsp
	.cfi_offset 14, -24
	.cfi_offset 13, -32
	.cfi_offset 12, -40
	.cfi_offset 3, -48
	movq	%rdi, -56(%rbp)
	movq	%rsi, -64(%rbp)
	movq	-64(%rbp), %rax
	cmpq	-56(%rbp), %rax
	je	.L472
	call	_ZN9__gnu_cxx14__alloc_traitsISaI5TokenES1_E27_S_propagate_on_copy_assignEv
	testb	%al, %al
	je	.L473
	call	_ZN9__gnu_cxx14__alloc_traitsISaI5TokenES1_E15_S_always_equalEv
	xorl	$1, %eax
	testb	%al, %al
	je	.L474
	movq	-64(%rbp), %rax
	movq	%rax, %rdi
	call	_ZNKSt12_Vector_baseI5TokenSaIS0_EE19_M_get_Tp_allocatorEv
	movq	%rax, %rbx
	movq	-56(%rbp), %rax
	movq	%rax, %rdi
	call	_ZNSt12_Vector_baseI5TokenSaIS0_EE19_M_get_Tp_allocatorEv
	movq	%rbx, %rsi
	movq	%rax, %rdi
	call	_ZStneRKSaI5TokenES2_
	testb	%al, %al
	je	.L474
	movl	$1, %eax
	jmp	.L475
.L474:
	movl	$0, %eax
.L475:
	testb	%al, %al
	je	.L476
	movq	-56(%rbp), %rax
	movq	%rax, %rdi
	call	_ZNSt6vectorI5TokenSaIS0_EE5clearEv
	movq	-56(%rbp), %rax
	movq	-56(%rbp), %rdx
	movq	16(%rdx), %rcx
	movq	-56(%rbp), %rdx
	movq	(%rdx), %rsi
	subq	%rsi, %rcx
	movq	%rcx, %rdx
	movq	%rdx, %rcx
	sarq	$5, %rcx
	movabsq	$-6148914691236517205, %rdx
	imulq	%rcx, %rdx
	movq	%rdx, %rsi
	movq	-56(%rbp), %rdx
	movq	(%rdx), %rcx
	movq	%rsi, %rdx
	movq	%rcx, %rsi
	movq	%rax, %rdi
	call	_ZNSt12_Vector_baseI5TokenSaIS0_EE13_M_deallocateEPS0_m
	movq	-56(%rbp), %rax
	movq	$0, (%rax)
	movq	-56(%rbp), %rax
	movq	$0, 8(%rax)
	movq	-56(%rbp), %rax
	movq	$0, 16(%rax)
.L476:
	movq	-64(%rbp), %rax
	movq	%rax, %rdi
	call	_ZNKSt12_Vector_baseI5TokenSaIS0_EE19_M_get_Tp_allocatorEv
	movq	%rax, %rbx
	movq	-56(%rbp), %rax
	movq	%rax, %rdi
	call	_ZNSt12_Vector_baseI5TokenSaIS0_EE19_M_get_Tp_allocatorEv
	movq	%rbx, %rsi
	movq	%rax, %rdi
	call	_ZSt15__alloc_on_copyISaI5TokenEEvRT_RKS2_
.L473:
	movq	-64(%rbp), %rax
	movq	%rax, %rdi
	call	_ZNKSt6vectorI5TokenSaIS0_EE4sizeEv
	movq	%rax, -48(%rbp)
	movq	-56(%rbp), %rax
	movq	%rax, %rdi
	call	_ZNKSt6vectorI5TokenSaIS0_EE8capacityEv
	cmpq	%rax, -48(%rbp)
	seta	%al
	testb	%al, %al
	je	.L477
	movq	-64(%rbp), %rax
	movq	%rax, %rdi
	call	_ZNKSt6vectorI5TokenSaIS0_EE3endEv
	movq	%rax, %rbx
	movq	-64(%rbp), %rax
	movq	%rax, %rdi
	call	_ZNKSt6vectorI5TokenSaIS0_EE5beginEv
	movq	%rax, %rdx
	movq	-48(%rbp), %rsi
	movq	-56(%rbp), %rax
	movq	%rbx, %rcx
	movq	%rax, %rdi
	call	_ZNSt6vectorI5TokenSaIS0_EE20_M_allocate_and_copyIN9__gnu_cxx17__normal_iteratorIPKS0_S2_EEEEPS0_mT_SA_
	movq	%rax, -40(%rbp)
	movq	-56(%rbp), %rax
	movq	%rax, %rdi
	call	_ZNSt12_Vector_baseI5TokenSaIS0_EE19_M_get_Tp_allocatorEv
	movq	%rax, %rdx
	movq	-56(%rbp), %rax
	movq	8(%rax), %rcx
	movq	-56(%rbp), %rax
	movq	(%rax), %rax
	movq	%rcx, %rsi
	movq	%rax, %rdi
	call	_ZSt8_DestroyIP5TokenS0_EvT_S2_RSaIT0_E
	movq	-56(%rbp), %rax
	movq	-56(%rbp), %rdx
	movq	16(%rdx), %rcx
	movq	-56(%rbp), %rdx
	movq	(%rdx), %rsi
	subq	%rsi, %rcx
	movq	%rcx, %rdx
	movq	%rdx, %rcx
	sarq	$5, %rcx
	movabsq	$-6148914691236517205, %rdx
	imulq	%rcx, %rdx
	movq	%rdx, %rsi
	movq	-56(%rbp), %rdx
	movq	(%rdx), %rcx
	movq	%rsi, %rdx
	movq	%rcx, %rsi
	movq	%rax, %rdi
	call	_ZNSt12_Vector_baseI5TokenSaIS0_EE13_M_deallocateEPS0_m
	movq	-56(%rbp), %rax
	movq	-40(%rbp), %rdx
	movq	%rdx, (%rax)
	movq	-56(%rbp), %rax
	movq	(%rax), %rcx
	movq	-48(%rbp), %rdx
	movq	%rdx, %rax
	addq	%rax, %rax
	addq	%rdx, %rax
	salq	$5, %rax
	leaq	(%rcx,%rax), %rdx
	movq	-56(%rbp), %rax
	movq	%rdx, 16(%rax)
	jmp	.L478
.L477:
	movq	-56(%rbp), %rax
	movq	%rax, %rdi
	call	_ZNKSt6vectorI5TokenSaIS0_EE4sizeEv
	cmpq	%rax, -48(%rbp)
	setbe	%al
	testb	%al, %al
	je	.L479
	movq	-56(%rbp), %rax
	movq	%rax, %rdi
	call	_ZNSt12_Vector_baseI5TokenSaIS0_EE19_M_get_Tp_allocatorEv
	movq	%rax, %r12
	movq	-56(%rbp), %rax
	movq	%rax, %rdi
	call	_ZNSt6vectorI5TokenSaIS0_EE3endEv
	movq	%rax, %rbx
	movq	-56(%rbp), %rax
	movq	%rax, %rdi
	call	_ZNSt6vectorI5TokenSaIS0_EE5beginEv
	movq	%rax, %r14
	movq	-64(%rbp), %rax
	movq	%rax, %rdi
	call	_ZNKSt6vectorI5TokenSaIS0_EE3endEv
	movq	%rax, %r13
	movq	-64(%rbp), %rax
	movq	%rax, %rdi
	call	_ZNKSt6vectorI5TokenSaIS0_EE5beginEv
	movq	%r14, %rdx
	movq	%r13, %rsi
	movq	%rax, %rdi
	call	_ZSt4copyIN9__gnu_cxx17__normal_iteratorIPK5TokenSt6vectorIS2_SaIS2_EEEENS1_IPS2_S7_EEET0_T_SC_SB_
	movq	%r12, %rdx
	movq	%rbx, %rsi
	movq	%rax, %rdi
	call	_ZSt8_DestroyIN9__gnu_cxx17__normal_iteratorIP5TokenSt6vectorIS2_SaIS2_EEEES2_EvT_S8_RSaIT0_E
	jmp	.L478
.L479:
	movq	-56(%rbp), %rax
	movq	(%rax), %rbx
	movq	-64(%rbp), %rax
	movq	(%rax), %r12
	movq	-56(%rbp), %rax
	movq	%rax, %rdi
	call	_ZNKSt6vectorI5TokenSaIS0_EE4sizeEv
	movq	%rax, %rdx
	movq	%rdx, %rax
	addq	%rax, %rax
	addq	%rdx, %rax
	salq	$5, %rax
	leaq	(%r12,%rax), %rcx
	movq	-64(%rbp), %rax
	movq	(%rax), %rax
	movq	%rbx, %rdx
	movq	%rcx, %rsi
	movq	%rax, %rdi
	call	_ZSt4copyIP5TokenS1_ET0_T_S3_S2_
	movq	-56(%rbp), %rax
	movq	%rax, %rdi
	call	_ZNSt12_Vector_baseI5TokenSaIS0_EE19_M_get_Tp_allocatorEv
	movq	%rax, %r13
	movq	-56(%rbp), %rax
	movq	8(%rax), %r12
	movq	-64(%rbp), %rax
	movq	8(%rax), %rbx
	movq	-64(%rbp), %rax
	movq	(%rax), %r14
	movq	-56(%rbp), %rax
	movq	%rax, %rdi
	call	_ZNKSt6vectorI5TokenSaIS0_EE4sizeEv
	movq	%rax, %rdx
	movq	%rdx, %rax
	addq	%rax, %rax
	addq	%rdx, %rax
	salq	$5, %rax
	addq	%r14, %rax
	movq	%r13, %rcx
	movq	%r12, %rdx
	movq	%rbx, %rsi
	movq	%rax, %rdi
	call	_ZSt22__uninitialized_copy_aIP5TokenS1_S0_ET0_T_S3_S2_RSaIT1_E
.L478:
	movq	-56(%rbp), %rax
	movq	(%rax), %rcx
	movq	-48(%rbp), %rdx
	movq	%rdx, %rax
	addq	%rax, %rax
	addq	%rdx, %rax
	salq	$5, %rax
	leaq	(%rcx,%rax), %rdx
	movq	-56(%rbp), %rax
	movq	%rdx, 8(%rax)
.L472:
	movq	-56(%rbp), %rax
	addq	$32, %rsp
	popq	%rbx
	popq	%r12
	popq	%r13
	popq	%r14
	popq	%rbp
	.cfi_def_cfa 7, 8
	ret
	.cfi_endproc
.LFE5600:
	.size	_ZNSt6vectorI5TokenSaIS0_EEaSERKS2_, .-_ZNSt6vectorI5TokenSaIS0_EEaSERKS2_
	.section	.text._ZN9__gnu_cxx17__normal_iteratorIP5TokenSt6vectorIS1_SaIS1_EEEppEi,"axG",@progbits,_ZN9__gnu_cxx17__normal_iteratorIP5TokenSt6vectorIS1_SaIS1_EEEppEi,comdat
	.align 2
	.weak	_ZN9__gnu_cxx17__normal_iteratorIP5TokenSt6vectorIS1_SaIS1_EEEppEi
	.type	_ZN9__gnu_cxx17__normal_iteratorIP5TokenSt6vectorIS1_SaIS1_EEEppEi, @function
_ZN9__gnu_cxx17__normal_iteratorIP5TokenSt6vectorIS1_SaIS1_EEEppEi:
.LFB5602:
	.cfi_startproc
	endbr64
	pushq	%rbp
	.cfi_def_cfa_offset 16
	.cfi_offset 6, -16
	movq	%rsp, %rbp
	.cfi_def_cfa_register 6
	subq	$48, %rsp
	movq	%rdi, -40(%rbp)
	movl	%esi, -44(%rbp)
	movq	%fs:40, %rax
	movq	%rax, -8(%rbp)
	xorl	%eax, %eax
	movq	-40(%rbp), %rax
	movq	(%rax), %rax
	leaq	96(%rax), %rcx
	movq	-40(%rbp), %rdx
	movq	%rcx, (%rdx)
	movq	%rax, -24(%rbp)
	leaq	-24(%rbp), %rdx
	leaq	-16(%rbp), %rax
	movq	%rdx, %rsi
	movq	%rax, %rdi
	call	_ZN9__gnu_cxx17__normal_iteratorIP5TokenSt6vectorIS1_SaIS1_EEEC1ERKS2_
	movq	-16(%rbp), %rax
	movq	-8(%rbp), %rdx
	subq	%fs:40, %rdx
	je	.L483
	call	__stack_chk_fail@PLT
.L483:
	leave
	.cfi_def_cfa 7, 8
	ret
	.cfi_endproc
.LFE5602:
	.size	_ZN9__gnu_cxx17__normal_iteratorIP5TokenSt6vectorIS1_SaIS1_EEEppEi, .-_ZN9__gnu_cxx17__normal_iteratorIP5TokenSt6vectorIS1_SaIS1_EEEppEi
	.section	.text._Z4nextI5TokenERT_RSt6vectorIS1_SaIS1_EE,"axG",@progbits,_Z4nextI5TokenERT_RSt6vectorIS1_SaIS1_EE,comdat
	.weak	_Z4nextI5TokenERT_RSt6vectorIS1_SaIS1_EE
	.type	_Z4nextI5TokenERT_RSt6vectorIS1_SaIS1_EE, @function
_Z4nextI5TokenERT_RSt6vectorIS1_SaIS1_EE:
.LFB5603:
	.cfi_startproc
	.cfi_personality 0x9b,DW.ref.__gxx_personality_v0
	.cfi_lsda 0x1b,.LLSDA5603
	endbr64
	pushq	%rbp
	.cfi_def_cfa_offset 16
	.cfi_offset 6, -16
	movq	%rsp, %rbp
	.cfi_def_cfa_register 6
	pushq	%rbx
	subq	$136, %rsp
	.cfi_offset 3, -24
	movq	%rdi, -136(%rbp)
	movq	%fs:40, %rax
	movq	%rax, -24(%rbp)
	xorl	%eax, %eax
	leaq	-128(%rbp), %rax
	movq	%rax, %rdi
.LEHB67:
	call	_ZN5TokenC1Ev
.LEHE67:
	leaq	-128(%rbp), %rdx
	movq	-136(%rbp), %rax
	movq	%rdx, %rsi
	movq	%rax, %rdi
.LEHB68:
	call	_ZNSt6vectorI5TokenSaIS0_EE9push_backEOS0_
.LEHE68:
	leaq	-128(%rbp), %rax
	movq	%rax, %rdi
	call	_ZN5TokenD1Ev
	movq	-136(%rbp), %rax
	movq	%rax, %rdi
	call	_ZNSt6vectorI5TokenSaIS0_EE4backEv
	movq	-24(%rbp), %rdx
	subq	%fs:40, %rdx
	je	.L487
	jmp	.L489
.L488:
	endbr64
	movq	%rax, %rbx
	leaq	-128(%rbp), %rax
	movq	%rax, %rdi
	call	_ZN5TokenD1Ev
	movq	%rbx, %rax
	movq	%rax, %rdi
.LEHB69:
	call	_Unwind_Resume@PLT
.LEHE69:
.L489:
	call	__stack_chk_fail@PLT
.L487:
	movq	-8(%rbp), %rbx
	leave
	.cfi_def_cfa 7, 8
	ret
	.cfi_endproc
.LFE5603:
	.section	.gcc_except_table
.LLSDA5603:
	.byte	0xff
	.byte	0xff
	.byte	0x1
	.uleb128 .LLSDACSE5603-.LLSDACSB5603
.LLSDACSB5603:
	.uleb128 .LEHB67-.LFB5603
	.uleb128 .LEHE67-.LEHB67
	.uleb128 0
	.uleb128 0
	.uleb128 .LEHB68-.LFB5603
	.uleb128 .LEHE68-.LEHB68
	.uleb128 .L488-.LFB5603
	.uleb128 0
	.uleb128 .LEHB69-.LFB5603
	.uleb128 .LEHE69-.LEHB69
	.uleb128 0
	.uleb128 0
.LLSDACSE5603:
	.section	.text._Z4nextI5TokenERT_RSt6vectorIS1_SaIS1_EE,"axG",@progbits,_Z4nextI5TokenERT_RSt6vectorIS1_SaIS1_EE,comdat
	.size	_Z4nextI5TokenERT_RSt6vectorIS1_SaIS1_EE, .-_Z4nextI5TokenERT_RSt6vectorIS1_SaIS1_EE
	.section	.text._ZNSt6vectorI5TokenSaIS0_EE5beginEv,"axG",@progbits,_ZNSt6vectorI5TokenSaIS0_EE5beginEv,comdat
	.align 2
	.weak	_ZNSt6vectorI5TokenSaIS0_EE5beginEv
	.type	_ZNSt6vectorI5TokenSaIS0_EE5beginEv, @function
_ZNSt6vectorI5TokenSaIS0_EE5beginEv:
.LFB5604:
	.cfi_startproc
	endbr64
	pushq	%rbp
	.cfi_def_cfa_offset 16
	.cfi_offset 6, -16
	movq	%rsp, %rbp
	.cfi_def_cfa_register 6
	subq	$32, %rsp
	movq	%rdi, -24(%rbp)
	movq	%fs:40, %rax
	movq	%rax, -8(%rbp)
	xorl	%eax, %eax
	movq	-24(%rbp), %rdx
	leaq	-16(%rbp), %rax
	movq	%rdx, %rsi
	movq	%rax, %rdi
	call	_ZN9__gnu_cxx17__normal_iteratorIP5TokenSt6vectorIS1_SaIS1_EEEC1ERKS2_
	movq	-16(%rbp), %rax
	movq	-8(%rbp), %rdx
	subq	%fs:40, %rdx
	je	.L492
	call	__stack_chk_fail@PLT
.L492:
	leave
	.cfi_def_cfa 7, 8
	ret
	.cfi_endproc
.LFE5604:
	.size	_ZNSt6vectorI5TokenSaIS0_EE5beginEv, .-_ZNSt6vectorI5TokenSaIS0_EE5beginEv
	.section	.text._ZNSt6vectorI5TokenSaIS0_EE3endEv,"axG",@progbits,_ZNSt6vectorI5TokenSaIS0_EE3endEv,comdat
	.align 2
	.weak	_ZNSt6vectorI5TokenSaIS0_EE3endEv
	.type	_ZNSt6vectorI5TokenSaIS0_EE3endEv, @function
_ZNSt6vectorI5TokenSaIS0_EE3endEv:
.LFB5605:
	.cfi_startproc
	endbr64
	pushq	%rbp
	.cfi_def_cfa_offset 16
	.cfi_offset 6, -16
	movq	%rsp, %rbp
	.cfi_def_cfa_register 6
	subq	$32, %rsp
	movq	%rdi, -24(%rbp)
	movq	%fs:40, %rax
	movq	%rax, -8(%rbp)
	xorl	%eax, %eax
	movq	-24(%rbp), %rax
	leaq	8(%rax), %rdx
	leaq	-16(%rbp), %rax
	movq	%rdx, %rsi
	movq	%rax, %rdi
	call	_ZN9__gnu_cxx17__normal_iteratorIP5TokenSt6vectorIS1_SaIS1_EEEC1ERKS2_
	movq	-16(%rbp), %rax
	movq	-8(%rbp), %rdx
	subq	%fs:40, %rdx
	je	.L495
	call	__stack_chk_fail@PLT
.L495:
	leave
	.cfi_def_cfa 7, 8
	ret
	.cfi_endproc
.LFE5605:
	.size	_ZNSt6vectorI5TokenSaIS0_EE3endEv, .-_ZNSt6vectorI5TokenSaIS0_EE3endEv
	.section	.text._ZNSt7__cxx1112basic_stringIcSt11char_traitsIcESaIcEEC2IPcvEET_S7_RKS3_,"axG",@progbits,_ZNSt7__cxx1112basic_stringIcSt11char_traitsIcESaIcEEC5IPcvEET_S7_RKS3_,comdat
	.align 2
	.weak	_ZNSt7__cxx1112basic_stringIcSt11char_traitsIcESaIcEEC2IPcvEET_S7_RKS3_
	.type	_ZNSt7__cxx1112basic_stringIcSt11char_traitsIcESaIcEEC2IPcvEET_S7_RKS3_, @function
_ZNSt7__cxx1112basic_stringIcSt11char_traitsIcESaIcEEC2IPcvEET_S7_RKS3_:
.LFB5629:
	.cfi_startproc
	.cfi_personality 0x9b,DW.ref.__gxx_personality_v0
	.cfi_lsda 0x1b,.LLSDA5629
	endbr64
	pushq	%rbp
	.cfi_def_cfa_offset 16
	.cfi_offset 6, -16
	movq	%rsp, %rbp
	.cfi_def_cfa_register 6
	pushq	%rbx
	subq	$40, %rsp
	.cfi_offset 3, -24
	movq	%rdi, -24(%rbp)
	movq	%rsi, -32(%rbp)
	movq	%rdx, -40(%rbp)
	movq	%rcx, -48(%rbp)
	movq	-24(%rbp), %rbx
	movq	-24(%rbp), %rax
	movq	%rax, %rdi
.LEHB70:
	call	_ZNSt7__cxx1112basic_stringIcSt11char_traitsIcESaIcEE13_M_local_dataEv@PLT
	movq	%rax, %rcx
	movq	-48(%rbp), %rax
	movq	%rax, %rdx
	movq	%rcx, %rsi
	movq	%rbx, %rdi
	call	_ZNSt7__cxx1112basic_stringIcSt11char_traitsIcESaIcEE12_Alloc_hiderC1EPcRKS3_@PLT
.LEHE70:
	movq	-40(%rbp), %rdx
	movq	-32(%rbp), %rcx
	movq	-24(%rbp), %rax
	movq	%rcx, %rsi
	movq	%rax, %rdi
.LEHB71:
	call	_ZNSt7__cxx1112basic_stringIcSt11char_traitsIcESaIcEE12_M_constructIPcEEvT_S7_
.LEHE71:
	jmp	.L499
.L498:
	endbr64
	movq	%rax, %rbx
	movq	-24(%rbp), %rax
	movq	%rax, %rdi
	call	_ZNSt7__cxx1112basic_stringIcSt11char_traitsIcESaIcEE12_Alloc_hiderD1Ev
	movq	%rbx, %rax
	movq	%rax, %rdi
.LEHB72:
	call	_Unwind_Resume@PLT
.LEHE72:
.L499:
	movq	-8(%rbp), %rbx
	leave
	.cfi_def_cfa 7, 8
	ret
	.cfi_endproc
.LFE5629:
	.section	.gcc_except_table
.LLSDA5629:
	.byte	0xff
	.byte	0xff
	.byte	0x1
	.uleb128 .LLSDACSE5629-.LLSDACSB5629
.LLSDACSB5629:
	.uleb128 .LEHB70-.LFB5629
	.uleb128 .LEHE70-.LEHB70
	.uleb128 0
	.uleb128 0
	.uleb128 .LEHB71-.LFB5629
	.uleb128 .LEHE71-.LEHB71
	.uleb128 .L498-.LFB5629
	.uleb128 0
	.uleb128 .LEHB72-.LFB5629
	.uleb128 .LEHE72-.LEHB72
	.uleb128 0
	.uleb128 0
.LLSDACSE5629:
	.section	.text._ZNSt7__cxx1112basic_stringIcSt11char_traitsIcESaIcEEC2IPcvEET_S7_RKS3_,"axG",@progbits,_ZNSt7__cxx1112basic_stringIcSt11char_traitsIcESaIcEEC5IPcvEET_S7_RKS3_,comdat
	.size	_ZNSt7__cxx1112basic_stringIcSt11char_traitsIcESaIcEEC2IPcvEET_S7_RKS3_, .-_ZNSt7__cxx1112basic_stringIcSt11char_traitsIcESaIcEEC2IPcvEET_S7_RKS3_
	.weak	_ZNSt7__cxx1112basic_stringIcSt11char_traitsIcESaIcEEC1IPcvEET_S7_RKS3_
	.set	_ZNSt7__cxx1112basic_stringIcSt11char_traitsIcESaIcEEC1IPcvEET_S7_RKS3_,_ZNSt7__cxx1112basic_stringIcSt11char_traitsIcESaIcEEC2IPcvEET_S7_RKS3_
	.section	.text._ZSt4moveIRNSt7__cxx1112basic_stringIcSt11char_traitsIcESaIcEEEEONSt16remove_referenceIT_E4typeEOS8_,"axG",@progbits,_ZSt4moveIRNSt7__cxx1112basic_stringIcSt11char_traitsIcESaIcEEEEONSt16remove_referenceIT_E4typeEOS8_,comdat
	.weak	_ZSt4moveIRNSt7__cxx1112basic_stringIcSt11char_traitsIcESaIcEEEEONSt16remove_referenceIT_E4typeEOS8_
	.type	_ZSt4moveIRNSt7__cxx1112basic_stringIcSt11char_traitsIcESaIcEEEEONSt16remove_referenceIT_E4typeEOS8_, @function
_ZSt4moveIRNSt7__cxx1112basic_stringIcSt11char_traitsIcESaIcEEEEONSt16remove_referenceIT_E4typeEOS8_:
.LFB5677:
	.cfi_startproc
	endbr64
	pushq	%rbp
	.cfi_def_cfa_offset 16
	.cfi_offset 6, -16
	movq	%rsp, %rbp
	.cfi_def_cfa_register 6
	movq	%rdi, -8(%rbp)
	movq	-8(%rbp), %rax
	popq	%rbp
	.cfi_def_cfa 7, 8
	ret
	.cfi_endproc
.LFE5677:
	.size	_ZSt4moveIRNSt7__cxx1112basic_stringIcSt11char_traitsIcESaIcEEEEONSt16remove_referenceIT_E4typeEOS8_, .-_ZSt4moveIRNSt7__cxx1112basic_stringIcSt11char_traitsIcESaIcEEEEONSt16remove_referenceIT_E4typeEOS8_
	.section	.text._ZNSaImEC2Ev,"axG",@progbits,_ZNSaImEC5Ev,comdat
	.align 2
	.weak	_ZNSaImEC2Ev
	.type	_ZNSaImEC2Ev, @function
_ZNSaImEC2Ev:
.LFB5687:
	.cfi_startproc
	endbr64
	pushq	%rbp
	.cfi_def_cfa_offset 16
	.cfi_offset 6, -16
	movq	%rsp, %rbp
	.cfi_def_cfa_register 6
	subq	$16, %rsp
	movq	%rdi, -8(%rbp)
	movq	-8(%rbp), %rax
	movq	%rax, %rdi
	call	_ZN9__gnu_cxx13new_allocatorImEC2Ev
	nop
	leave
	.cfi_def_cfa 7, 8
	ret
	.cfi_endproc
.LFE5687:
	.size	_ZNSaImEC2Ev, .-_ZNSaImEC2Ev
	.weak	_ZNSaImEC1Ev
	.set	_ZNSaImEC1Ev,_ZNSaImEC2Ev
	.section	.text._ZNSt12_Vector_baseImSaImEE17_Vector_impl_dataC2Ev,"axG",@progbits,_ZNSt12_Vector_baseImSaImEE17_Vector_impl_dataC5Ev,comdat
	.align 2
	.weak	_ZNSt12_Vector_baseImSaImEE17_Vector_impl_dataC2Ev
	.type	_ZNSt12_Vector_baseImSaImEE17_Vector_impl_dataC2Ev, @function
_ZNSt12_Vector_baseImSaImEE17_Vector_impl_dataC2Ev:
.LFB5690:
	.cfi_startproc
	endbr64
	pushq	%rbp
	.cfi_def_cfa_offset 16
	.cfi_offset 6, -16
	movq	%rsp, %rbp
	.cfi_def_cfa_register 6
	movq	%rdi, -8(%rbp)
	movq	-8(%rbp), %rax
	movq	$0, (%rax)
	movq	-8(%rbp), %rax
	movq	$0, 8(%rax)
	movq	-8(%rbp), %rax
	movq	$0, 16(%rax)
	nop
	popq	%rbp
	.cfi_def_cfa 7, 8
	ret
	.cfi_endproc
.LFE5690:
	.size	_ZNSt12_Vector_baseImSaImEE17_Vector_impl_dataC2Ev, .-_ZNSt12_Vector_baseImSaImEE17_Vector_impl_dataC2Ev
	.weak	_ZNSt12_Vector_baseImSaImEE17_Vector_impl_dataC1Ev
	.set	_ZNSt12_Vector_baseImSaImEE17_Vector_impl_dataC1Ev,_ZNSt12_Vector_baseImSaImEE17_Vector_impl_dataC2Ev
	.section	.text._ZN9__gnu_cxx13new_allocatorImED2Ev,"axG",@progbits,_ZN9__gnu_cxx13new_allocatorImED5Ev,comdat
	.align 2
	.weak	_ZN9__gnu_cxx13new_allocatorImED2Ev
	.type	_ZN9__gnu_cxx13new_allocatorImED2Ev, @function
_ZN9__gnu_cxx13new_allocatorImED2Ev:
.LFB5693:
	.cfi_startproc
	endbr64
	pushq	%rbp
	.cfi_def_cfa_offset 16
	.cfi_offset 6, -16
	movq	%rsp, %rbp
	.cfi_def_cfa_register 6
	movq	%rdi, -8(%rbp)
	nop
	popq	%rbp
	.cfi_def_cfa 7, 8
	ret
	.cfi_endproc
.LFE5693:
	.size	_ZN9__gnu_cxx13new_allocatorImED2Ev, .-_ZN9__gnu_cxx13new_allocatorImED2Ev
	.weak	_ZN9__gnu_cxx13new_allocatorImED1Ev
	.set	_ZN9__gnu_cxx13new_allocatorImED1Ev,_ZN9__gnu_cxx13new_allocatorImED2Ev
	.section	.text._ZNSt12_Vector_baseImSaImEE13_M_deallocateEPmm,"axG",@progbits,_ZNSt12_Vector_baseImSaImEE13_M_deallocateEPmm,comdat
	.align 2
	.weak	_ZNSt12_Vector_baseImSaImEE13_M_deallocateEPmm
	.type	_ZNSt12_Vector_baseImSaImEE13_M_deallocateEPmm, @function
_ZNSt12_Vector_baseImSaImEE13_M_deallocateEPmm:
.LFB5695:
	.cfi_startproc
	endbr64
	pushq	%rbp
	.cfi_def_cfa_offset 16
	.cfi_offset 6, -16
	movq	%rsp, %rbp
	.cfi_def_cfa_register 6
	subq	$32, %rsp
	movq	%rdi, -8(%rbp)
	movq	%rsi, -16(%rbp)
	movq	%rdx, -24(%rbp)
	cmpq	$0, -16(%rbp)
	je	.L507
	movq	-8(%rbp), %rax
	movq	-24(%rbp), %rdx
	movq	-16(%rbp), %rcx
	movq	%rcx, %rsi
	movq	%rax, %rdi
	call	_ZNSt16allocator_traitsISaImEE10deallocateERS0_Pmm
.L507:
	nop
	leave
	.cfi_def_cfa 7, 8
	ret
	.cfi_endproc
.LFE5695:
	.size	_ZNSt12_Vector_baseImSaImEE13_M_deallocateEPmm, .-_ZNSt12_Vector_baseImSaImEE13_M_deallocateEPmm
	.section	.text._ZNSt12_Vector_baseImSaImEE19_M_get_Tp_allocatorEv,"axG",@progbits,_ZNSt12_Vector_baseImSaImEE19_M_get_Tp_allocatorEv,comdat
	.align 2
	.weak	_ZNSt12_Vector_baseImSaImEE19_M_get_Tp_allocatorEv
	.type	_ZNSt12_Vector_baseImSaImEE19_M_get_Tp_allocatorEv, @function
_ZNSt12_Vector_baseImSaImEE19_M_get_Tp_allocatorEv:
.LFB5696:
	.cfi_startproc
	endbr64
	pushq	%rbp
	.cfi_def_cfa_offset 16
	.cfi_offset 6, -16
	movq	%rsp, %rbp
	.cfi_def_cfa_register 6
	movq	%rdi, -8(%rbp)
	movq	-8(%rbp), %rax
	popq	%rbp
	.cfi_def_cfa 7, 8
	ret
	.cfi_endproc
.LFE5696:
	.size	_ZNSt12_Vector_baseImSaImEE19_M_get_Tp_allocatorEv, .-_ZNSt12_Vector_baseImSaImEE19_M_get_Tp_allocatorEv
	.section	.text._ZSt8_DestroyIPmmEvT_S1_RSaIT0_E,"axG",@progbits,_ZSt8_DestroyIPmmEvT_S1_RSaIT0_E,comdat
	.weak	_ZSt8_DestroyIPmmEvT_S1_RSaIT0_E
	.type	_ZSt8_DestroyIPmmEvT_S1_RSaIT0_E, @function
_ZSt8_DestroyIPmmEvT_S1_RSaIT0_E:
.LFB5697:
	.cfi_startproc
	endbr64
	pushq	%rbp
	.cfi_def_cfa_offset 16
	.cfi_offset 6, -16
	movq	%rsp, %rbp
	.cfi_def_cfa_register 6
	subq	$32, %rsp
	movq	%rdi, -8(%rbp)
	movq	%rsi, -16(%rbp)
	movq	%rdx, -24(%rbp)
	movq	-16(%rbp), %rdx
	movq	-8(%rbp), %rax
	movq	%rdx, %rsi
	movq	%rax, %rdi
	call	_ZSt8_DestroyIPmEvT_S1_
	nop
	leave
	.cfi_def_cfa 7, 8
	ret
	.cfi_endproc
.LFE5697:
	.size	_ZSt8_DestroyIPmmEvT_S1_RSaIT0_E, .-_ZSt8_DestroyIPmmEvT_S1_RSaIT0_E
	.section	.text._ZNSt10shared_ptrIKNSt8__detail4_NFAINSt7__cxx1112regex_traitsIcEEEEEC2Ev,"axG",@progbits,_ZNSt10shared_ptrIKNSt8__detail4_NFAINSt7__cxx1112regex_traitsIcEEEEEC5Ev,comdat
	.align 2
	.weak	_ZNSt10shared_ptrIKNSt8__detail4_NFAINSt7__cxx1112regex_traitsIcEEEEEC2Ev
	.type	_ZNSt10shared_ptrIKNSt8__detail4_NFAINSt7__cxx1112regex_traitsIcEEEEEC2Ev, @function
_ZNSt10shared_ptrIKNSt8__detail4_NFAINSt7__cxx1112regex_traitsIcEEEEEC2Ev:
.LFB5700:
	.cfi_startproc
	endbr64
	pushq	%rbp
	.cfi_def_cfa_offset 16
	.cfi_offset 6, -16
	movq	%rsp, %rbp
	.cfi_def_cfa_register 6
	subq	$16, %rsp
	movq	%rdi, -8(%rbp)
	movq	-8(%rbp), %rax
	movq	%rax, %rdi
	call	_ZNSt12__shared_ptrIKNSt8__detail4_NFAINSt7__cxx1112regex_traitsIcEEEELN9__gnu_cxx12_Lock_policyE2EEC2Ev
	nop
	leave
	.cfi_def_cfa 7, 8
	ret
	.cfi_endproc
.LFE5700:
	.size	_ZNSt10shared_ptrIKNSt8__detail4_NFAINSt7__cxx1112regex_traitsIcEEEEEC2Ev, .-_ZNSt10shared_ptrIKNSt8__detail4_NFAINSt7__cxx1112regex_traitsIcEEEEEC2Ev
	.weak	_ZNSt10shared_ptrIKNSt8__detail4_NFAINSt7__cxx1112regex_traitsIcEEEEEC1Ev
	.set	_ZNSt10shared_ptrIKNSt8__detail4_NFAINSt7__cxx1112regex_traitsIcEEEEEC1Ev,_ZNSt10shared_ptrIKNSt8__detail4_NFAINSt7__cxx1112regex_traitsIcEEEEEC2Ev
	.section	.text._ZNSt10shared_ptrIKNSt8__detail4_NFAINSt7__cxx1112regex_traitsIcEEEEEC2EDn,"axG",@progbits,_ZNSt10shared_ptrIKNSt8__detail4_NFAINSt7__cxx1112regex_traitsIcEEEEEC5EDn,comdat
	.align 2
	.weak	_ZNSt10shared_ptrIKNSt8__detail4_NFAINSt7__cxx1112regex_traitsIcEEEEEC2EDn
	.type	_ZNSt10shared_ptrIKNSt8__detail4_NFAINSt7__cxx1112regex_traitsIcEEEEEC2EDn, @function
_ZNSt10shared_ptrIKNSt8__detail4_NFAINSt7__cxx1112regex_traitsIcEEEEEC2EDn:
.LFB5702:
	.cfi_startproc
	endbr64
	pushq	%rbp
	.cfi_def_cfa_offset 16
	.cfi_offset 6, -16
	movq	%rsp, %rbp
	.cfi_def_cfa_register 6
	subq	$16, %rsp
	movq	%rdi, -8(%rbp)
	movq	%rsi, -16(%rbp)
	movq	-8(%rbp), %rax
	movq	%rax, %rdi
	call	_ZNSt10shared_ptrIKNSt8__detail4_NFAINSt7__cxx1112regex_traitsIcEEEEEC1Ev
	nop
	leave
	.cfi_def_cfa 7, 8
	ret
	.cfi_endproc
.LFE5702:
	.size	_ZNSt10shared_ptrIKNSt8__detail4_NFAINSt7__cxx1112regex_traitsIcEEEEEC2EDn, .-_ZNSt10shared_ptrIKNSt8__detail4_NFAINSt7__cxx1112regex_traitsIcEEEEEC2EDn
	.weak	_ZNSt10shared_ptrIKNSt8__detail4_NFAINSt7__cxx1112regex_traitsIcEEEEEC1EDn
	.set	_ZNSt10shared_ptrIKNSt8__detail4_NFAINSt7__cxx1112regex_traitsIcEEEEEC1EDn,_ZNSt10shared_ptrIKNSt8__detail4_NFAINSt7__cxx1112regex_traitsIcEEEEEC2EDn
	.section	.text._ZNSt7__cxx1111basic_regexIcNS_12regex_traitsIcEEE6assignISt11char_traitsIcESaIcEEERS3_RKNS_12basic_stringIcT_T0_EENSt15regex_constants18syntax_option_typeE,"axG",@progbits,_ZNSt7__cxx1111basic_regexIcNS_12regex_traitsIcEEE6assignISt11char_traitsIcESaIcEEERS3_RKNS_12basic_stringIcT_T0_EENSt15regex_constants18syntax_option_typeE,comdat
	.align 2
	.weak	_ZNSt7__cxx1111basic_regexIcNS_12regex_traitsIcEEE6assignISt11char_traitsIcESaIcEEERS3_RKNS_12basic_stringIcT_T0_EENSt15regex_constants18syntax_option_typeE
	.type	_ZNSt7__cxx1111basic_regexIcNS_12regex_traitsIcEEE6assignISt11char_traitsIcESaIcEEERS3_RKNS_12basic_stringIcT_T0_EENSt15regex_constants18syntax_option_typeE, @function
_ZNSt7__cxx1111basic_regexIcNS_12regex_traitsIcEEE6assignISt11char_traitsIcESaIcEEERS3_RKNS_12basic_stringIcT_T0_EENSt15regex_constants18syntax_option_typeE:
.LFB5706:
	.cfi_startproc
	.cfi_personality 0x9b,DW.ref.__gxx_personality_v0
	.cfi_lsda 0x1b,.LLSDA5706
	endbr64
	pushq	%rbp
	.cfi_def_cfa_offset 16
	.cfi_offset 6, -16
	movq	%rsp, %rbp
	.cfi_def_cfa_register 6
	pushq	%rbx
	subq	$104, %rsp
	.cfi_offset 3, -24
	movq	%rdi, -88(%rbp)
	movq	%rsi, -96(%rbp)
	movl	%edx, -100(%rbp)
	movq	%fs:40, %rax
	movq	%rax, -24(%rbp)
	xorl	%eax, %eax
	movq	-88(%rbp), %rax
	leaq	8(%rax), %rdx
	leaq	-72(%rbp), %rax
	movq	%rdx, %rsi
	movq	%rax, %rdi
	call	_ZNSt6localeC1ERKS_@PLT
	movq	-96(%rbp), %rax
	movq	%rax, %rdi
	call	_ZNKSt7__cxx1112basic_stringIcSt11char_traitsIcESaIcEE4dataEv@PLT
	movq	%rax, %rbx
	movq	-96(%rbp), %rax
	movq	%rax, %rdi
	call	_ZNKSt7__cxx1112basic_stringIcSt11char_traitsIcESaIcEE4sizeEv@PLT
	addq	%rax, %rbx
	movq	-96(%rbp), %rax
	movq	%rax, %rdi
	call	_ZNKSt7__cxx1112basic_stringIcSt11char_traitsIcESaIcEE4dataEv@PLT
	movq	%rax, %rsi
	movl	-100(%rbp), %ecx
	leaq	-72(%rbp), %rdx
	leaq	-64(%rbp), %rax
	movl	%ecx, %r8d
	movq	%rdx, %rcx
	movq	%rbx, %rdx
	movq	%rax, %rdi
.LEHB73:
	call	_ZNSt7__cxx1111basic_regexIcNS_12regex_traitsIcEEEC1IPKcEET_S7_St6localeNSt15regex_constants18syntax_option_typeE
.LEHE73:
	leaq	-64(%rbp), %rdx
	movq	-88(%rbp), %rax
	movq	%rdx, %rsi
	movq	%rax, %rdi
	call	_ZNSt7__cxx1111basic_regexIcNS_12regex_traitsIcEEE6assignEOS3_
	movq	%rax, %rbx
	nop
	leaq	-64(%rbp), %rax
	movq	%rax, %rdi
	call	_ZNSt7__cxx1111basic_regexIcNS_12regex_traitsIcEEED1Ev
	leaq	-72(%rbp), %rax
	movq	%rax, %rdi
	call	_ZNSt6localeD1Ev@PLT
	movq	%rbx, %rax
	movq	-24(%rbp), %rdx
	subq	%fs:40, %rdx
	je	.L516
	jmp	.L518
.L517:
	endbr64
	movq	%rax, %rbx
	leaq	-72(%rbp), %rax
	movq	%rax, %rdi
	call	_ZNSt6localeD1Ev@PLT
	movq	%rbx, %rax
	movq	%rax, %rdi
.LEHB74:
	call	_Unwind_Resume@PLT
.LEHE74:
.L518:
	call	__stack_chk_fail@PLT
.L516:
	movq	-8(%rbp), %rbx
	leave
	.cfi_def_cfa 7, 8
	ret
	.cfi_endproc
.LFE5706:
	.section	.gcc_except_table
.LLSDA5706:
	.byte	0xff
	.byte	0xff
	.byte	0x1
	.uleb128 .LLSDACSE5706-.LLSDACSB5706
.LLSDACSB5706:
	.uleb128 .LEHB73-.LFB5706
	.uleb128 .LEHE73-.LEHB73
	.uleb128 .L517-.LFB5706
	.uleb128 0
	.uleb128 .LEHB74-.LFB5706
	.uleb128 .LEHE74-.LEHB74
	.uleb128 0
	.uleb128 0
.LLSDACSE5706:
	.section	.text._ZNSt7__cxx1111basic_regexIcNS_12regex_traitsIcEEE6assignISt11char_traitsIcESaIcEEERS3_RKNS_12basic_stringIcT_T0_EENSt15regex_constants18syntax_option_typeE,"axG",@progbits,_ZNSt7__cxx1111basic_regexIcNS_12regex_traitsIcEEE6assignISt11char_traitsIcESaIcEEERS3_RKNS_12basic_stringIcT_T0_EENSt15regex_constants18syntax_option_typeE,comdat
	.size	_ZNSt7__cxx1111basic_regexIcNS_12regex_traitsIcEEE6assignISt11char_traitsIcESaIcEEERS3_RKNS_12basic_stringIcT_T0_EENSt15regex_constants18syntax_option_typeE, .-_ZNSt7__cxx1111basic_regexIcNS_12regex_traitsIcEEE6assignISt11char_traitsIcESaIcEEERS3_RKNS_12basic_stringIcT_T0_EENSt15regex_constants18syntax_option_typeE
	.section	.text._ZN9__gnu_cxx14__alloc_traitsISaIcEcE17_S_select_on_copyERKS1_,"axG",@progbits,_ZN9__gnu_cxx14__alloc_traitsISaIcEcE17_S_select_on_copyERKS1_,comdat
	.weak	_ZN9__gnu_cxx14__alloc_traitsISaIcEcE17_S_select_on_copyERKS1_
	.type	_ZN9__gnu_cxx14__alloc_traitsISaIcEcE17_S_select_on_copyERKS1_, @function
_ZN9__gnu_cxx14__alloc_traitsISaIcEcE17_S_select_on_copyERKS1_:
.LFB5707:
	.cfi_startproc
	endbr64
	pushq	%rbp
	.cfi_def_cfa_offset 16
	.cfi_offset 6, -16
	movq	%rsp, %rbp
	.cfi_def_cfa_register 6
	subq	$32, %rsp
	movq	%rdi, -24(%rbp)
	movq	%rsi, -32(%rbp)
	movq	%fs:40, %rax
	movq	%rax, -8(%rbp)
	xorl	%eax, %eax
	movq	-24(%rbp), %rax
	movq	-32(%rbp), %rdx
	movq	%rdx, %rsi
	movq	%rax, %rdi
	call	_ZNSt16allocator_traitsISaIcEE37select_on_container_copy_constructionERKS0_
	movq	-8(%rbp), %rax
	subq	%fs:40, %rax
	je	.L521
	call	__stack_chk_fail@PLT
.L521:
	movq	-24(%rbp), %rax
	leave
	.cfi_def_cfa 7, 8
	ret
	.cfi_endproc
.LFE5707:
	.size	_ZN9__gnu_cxx14__alloc_traitsISaIcEcE17_S_select_on_copyERKS1_, .-_ZN9__gnu_cxx14__alloc_traitsISaIcEcE17_S_select_on_copyERKS1_
	.section	.text._ZNSt7__cxx1112basic_stringIcSt11char_traitsIcESaIcEE12_M_constructIPcEEvT_S7_,"axG",@progbits,_ZNSt7__cxx1112basic_stringIcSt11char_traitsIcESaIcEE12_M_constructIPcEEvT_S7_,comdat
	.align 2
	.weak	_ZNSt7__cxx1112basic_stringIcSt11char_traitsIcESaIcEE12_M_constructIPcEEvT_S7_
	.type	_ZNSt7__cxx1112basic_stringIcSt11char_traitsIcESaIcEE12_M_constructIPcEEvT_S7_, @function
_ZNSt7__cxx1112basic_stringIcSt11char_traitsIcESaIcEE12_M_constructIPcEEvT_S7_:
.LFB5709:
	.cfi_startproc
	endbr64
	pushq	%rbp
	.cfi_def_cfa_offset 16
	.cfi_offset 6, -16
	movq	%rsp, %rbp
	.cfi_def_cfa_register 6
	subq	$32, %rsp
	movq	%rdi, -8(%rbp)
	movq	%rsi, -16(%rbp)
	movq	%rdx, -24(%rbp)
	movq	-24(%rbp), %rdx
	movq	-16(%rbp), %rcx
	movq	-8(%rbp), %rax
	movq	%rcx, %rsi
	movq	%rax, %rdi
	call	_ZNSt7__cxx1112basic_stringIcSt11char_traitsIcESaIcEE16_M_construct_auxIPcEEvT_S7_St12__false_type
	nop
	leave
	.cfi_def_cfa 7, 8
	ret
	.cfi_endproc
.LFE5709:
	.size	_ZNSt7__cxx1112basic_stringIcSt11char_traitsIcESaIcEE12_M_constructIPcEEvT_S7_, .-_ZNSt7__cxx1112basic_stringIcSt11char_traitsIcESaIcEE12_M_constructIPcEEvT_S7_
	.section	.text._ZNSt16_Sp_counted_baseILN9__gnu_cxx12_Lock_policyE2EE15_M_add_ref_copyEv,"axG",@progbits,_ZNSt16_Sp_counted_baseILN9__gnu_cxx12_Lock_policyE2EE15_M_add_ref_copyEv,comdat
	.align 2
	.weak	_ZNSt16_Sp_counted_baseILN9__gnu_cxx12_Lock_policyE2EE15_M_add_ref_copyEv
	.type	_ZNSt16_Sp_counted_baseILN9__gnu_cxx12_Lock_policyE2EE15_M_add_ref_copyEv, @function
_ZNSt16_Sp_counted_baseILN9__gnu_cxx12_Lock_policyE2EE15_M_add_ref_copyEv:
.LFB5710:
	.cfi_startproc
	endbr64
	pushq	%rbp
	.cfi_def_cfa_offset 16
	.cfi_offset 6, -16
	movq	%rsp, %rbp
	.cfi_def_cfa_register 6
	movq	%rdi, -56(%rbp)
	movq	-56(%rbp), %rax
	addq	$8, %rax
	movq	%rax, -24(%rbp)
	movl	$1, -36(%rbp)
	movzbl	__libc_single_threaded(%rip), %eax
	testb	%al, %al
	setne	%al
	testb	%al, %al
	je	.L525
	movq	-24(%rbp), %rax
	movq	%rax, -16(%rbp)
	movl	-36(%rbp), %eax
	movl	%eax, -32(%rbp)
	movq	-16(%rbp), %rax
	movl	(%rax), %edx
	movl	-32(%rbp), %eax
	addl	%eax, %edx
	movq	-16(%rbp), %rax
	movl	%edx, (%rax)
	jmp	.L526
.L525:
	movq	-24(%rbp), %rax
	movq	%rax, -8(%rbp)
	movl	-36(%rbp), %eax
	movl	%eax, -28(%rbp)
	movl	-28(%rbp), %edx
	movq	-8(%rbp), %rax
	lock addl	%edx, (%rax)
	nop
.L526:
	nop
	nop
	popq	%rbp
	.cfi_def_cfa 7, 8
	ret
	.cfi_endproc
.LFE5710:
	.size	_ZNSt16_Sp_counted_baseILN9__gnu_cxx12_Lock_policyE2EE15_M_add_ref_copyEv, .-_ZNSt16_Sp_counted_baseILN9__gnu_cxx12_Lock_policyE2EE15_M_add_ref_copyEv
	.section	.text._ZNSt16_Sp_counted_baseILN9__gnu_cxx12_Lock_policyE2EE10_M_releaseEv,"axG",@progbits,_ZNSt16_Sp_counted_baseILN9__gnu_cxx12_Lock_policyE2EE10_M_releaseEv,comdat
	.align 2
	.weak	_ZNSt16_Sp_counted_baseILN9__gnu_cxx12_Lock_policyE2EE10_M_releaseEv
	.type	_ZNSt16_Sp_counted_baseILN9__gnu_cxx12_Lock_policyE2EE10_M_releaseEv, @function
_ZNSt16_Sp_counted_baseILN9__gnu_cxx12_Lock_policyE2EE10_M_releaseEv:
.LFB5711:
	.cfi_startproc
	endbr64
	pushq	%rbp
	.cfi_def_cfa_offset 16
	.cfi_offset 6, -16
	movq	%rsp, %rbp
	.cfi_def_cfa_register 6
	subq	$96, %rsp
	movq	%rdi, -88(%rbp)
	movq	-88(%rbp), %rax
	addq	$8, %rax
	movq	%rax, -48(%rbp)
	movl	$-1, -80(%rbp)
	movzbl	__libc_single_threaded(%rip), %eax
	testb	%al, %al
	setne	%al
	testb	%al, %al
	je	.L529
	movq	-48(%rbp), %rax
	movq	%rax, -40(%rbp)
	movl	-80(%rbp), %eax
	movl	%eax, -76(%rbp)
	movq	-40(%rbp), %rax
	movl	(%rax), %eax
	movl	%eax, -72(%rbp)
	movq	-40(%rbp), %rax
	movl	(%rax), %edx
	movl	-76(%rbp), %eax
	addl	%eax, %edx
	movq	-40(%rbp), %rax
	movl	%edx, (%rax)
	movl	-72(%rbp), %eax
	jmp	.L531
.L529:
	movq	-48(%rbp), %rax
	movq	%rax, -32(%rbp)
	movl	-80(%rbp), %eax
	movl	%eax, -68(%rbp)
	movl	-68(%rbp), %edx
	movq	-32(%rbp), %rax
	lock xaddl	%edx, (%rax)
	movl	%edx, %eax
	nop
.L531:
	cmpl	$1, %eax
	sete	%al
	testb	%al, %al
	je	.L539
	movq	-88(%rbp), %rax
	movq	(%rax), %rax
	addq	$16, %rax
	movq	(%rax), %rdx
	movq	-88(%rbp), %rax
	movq	%rax, %rdi
	call	*%rdx
	movq	-88(%rbp), %rax
	addq	$12, %rax
	movq	%rax, -24(%rbp)
	movl	$-1, -64(%rbp)
	movzbl	__libc_single_threaded(%rip), %eax
	testb	%al, %al
	setne	%al
	testb	%al, %al
	je	.L535
	movq	-24(%rbp), %rax
	movq	%rax, -16(%rbp)
	movl	-64(%rbp), %eax
	movl	%eax, -60(%rbp)
	movq	-16(%rbp), %rax
	movl	(%rax), %eax
	movl	%eax, -56(%rbp)
	movq	-16(%rbp), %rax
	movl	(%rax), %edx
	movl	-60(%rbp), %eax
	addl	%eax, %edx
	movq	-16(%rbp), %rax
	movl	%edx, (%rax)
	movl	-56(%rbp), %eax
	jmp	.L537
.L535:
	movq	-24(%rbp), %rax
	movq	%rax, -8(%rbp)
	movl	-64(%rbp), %eax
	movl	%eax, -52(%rbp)
	movl	-52(%rbp), %edx
	movq	-8(%rbp), %rax
	lock xaddl	%edx, (%rax)
	movl	%edx, %eax
	nop
.L537:
	cmpl	$1, %eax
	sete	%al
	testb	%al, %al
	je	.L539
	movq	-88(%rbp), %rax
	movq	(%rax), %rax
	addq	$24, %rax
	movq	(%rax), %rdx
	movq	-88(%rbp), %rax
	movq	%rax, %rdi
	call	*%rdx
.L539:
	nop
	leave
	.cfi_def_cfa 7, 8
	ret
	.cfi_endproc
.LFE5711:
	.size	_ZNSt16_Sp_counted_baseILN9__gnu_cxx12_Lock_policyE2EE10_M_releaseEv, .-_ZNSt16_Sp_counted_baseILN9__gnu_cxx12_Lock_policyE2EE10_M_releaseEv
	.section	.text._ZNSaI5TokenEC2Ev,"axG",@progbits,_ZNSaI5TokenEC5Ev,comdat
	.align 2
	.weak	_ZNSaI5TokenEC2Ev
	.type	_ZNSaI5TokenEC2Ev, @function
_ZNSaI5TokenEC2Ev:
.LFB5713:
	.cfi_startproc
	endbr64
	pushq	%rbp
	.cfi_def_cfa_offset 16
	.cfi_offset 6, -16
	movq	%rsp, %rbp
	.cfi_def_cfa_register 6
	subq	$16, %rsp
	movq	%rdi, -8(%rbp)
	movq	-8(%rbp), %rax
	movq	%rax, %rdi
	call	_ZN9__gnu_cxx13new_allocatorI5TokenEC2Ev
	nop
	leave
	.cfi_def_cfa 7, 8
	ret
	.cfi_endproc
.LFE5713:
	.size	_ZNSaI5TokenEC2Ev, .-_ZNSaI5TokenEC2Ev
	.weak	_ZNSaI5TokenEC1Ev
	.set	_ZNSaI5TokenEC1Ev,_ZNSaI5TokenEC2Ev
	.section	.text._ZNSt12_Vector_baseI5TokenSaIS0_EE17_Vector_impl_dataC2Ev,"axG",@progbits,_ZNSt12_Vector_baseI5TokenSaIS0_EE17_Vector_impl_dataC5Ev,comdat
	.align 2
	.weak	_ZNSt12_Vector_baseI5TokenSaIS0_EE17_Vector_impl_dataC2Ev
	.type	_ZNSt12_Vector_baseI5TokenSaIS0_EE17_Vector_impl_dataC2Ev, @function
_ZNSt12_Vector_baseI5TokenSaIS0_EE17_Vector_impl_dataC2Ev:
.LFB5716:
	.cfi_startproc
	endbr64
	pushq	%rbp
	.cfi_def_cfa_offset 16
	.cfi_offset 6, -16
	movq	%rsp, %rbp
	.cfi_def_cfa_register 6
	movq	%rdi, -8(%rbp)
	movq	-8(%rbp), %rax
	movq	$0, (%rax)
	movq	-8(%rbp), %rax
	movq	$0, 8(%rax)
	movq	-8(%rbp), %rax
	movq	$0, 16(%rax)
	nop
	popq	%rbp
	.cfi_def_cfa 7, 8
	ret
	.cfi_endproc
.LFE5716:
	.size	_ZNSt12_Vector_baseI5TokenSaIS0_EE17_Vector_impl_dataC2Ev, .-_ZNSt12_Vector_baseI5TokenSaIS0_EE17_Vector_impl_dataC2Ev
	.weak	_ZNSt12_Vector_baseI5TokenSaIS0_EE17_Vector_impl_dataC1Ev
	.set	_ZNSt12_Vector_baseI5TokenSaIS0_EE17_Vector_impl_dataC1Ev,_ZNSt12_Vector_baseI5TokenSaIS0_EE17_Vector_impl_dataC2Ev
	.section	.text._ZN9__gnu_cxx13new_allocatorI5TokenED2Ev,"axG",@progbits,_ZN9__gnu_cxx13new_allocatorI5TokenED5Ev,comdat
	.align 2
	.weak	_ZN9__gnu_cxx13new_allocatorI5TokenED2Ev
	.type	_ZN9__gnu_cxx13new_allocatorI5TokenED2Ev, @function
_ZN9__gnu_cxx13new_allocatorI5TokenED2Ev:
.LFB5719:
	.cfi_startproc
	endbr64
	pushq	%rbp
	.cfi_def_cfa_offset 16
	.cfi_offset 6, -16
	movq	%rsp, %rbp
	.cfi_def_cfa_register 6
	movq	%rdi, -8(%rbp)
	nop
	popq	%rbp
	.cfi_def_cfa 7, 8
	ret
	.cfi_endproc
.LFE5719:
	.size	_ZN9__gnu_cxx13new_allocatorI5TokenED2Ev, .-_ZN9__gnu_cxx13new_allocatorI5TokenED2Ev
	.weak	_ZN9__gnu_cxx13new_allocatorI5TokenED1Ev
	.set	_ZN9__gnu_cxx13new_allocatorI5TokenED1Ev,_ZN9__gnu_cxx13new_allocatorI5TokenED2Ev
	.section	.text._ZNSt12_Vector_baseI5TokenSaIS0_EE13_M_deallocateEPS0_m,"axG",@progbits,_ZNSt12_Vector_baseI5TokenSaIS0_EE13_M_deallocateEPS0_m,comdat
	.align 2
	.weak	_ZNSt12_Vector_baseI5TokenSaIS0_EE13_M_deallocateEPS0_m
	.type	_ZNSt12_Vector_baseI5TokenSaIS0_EE13_M_deallocateEPS0_m, @function
_ZNSt12_Vector_baseI5TokenSaIS0_EE13_M_deallocateEPS0_m:
.LFB5721:
	.cfi_startproc
	endbr64
	pushq	%rbp
	.cfi_def_cfa_offset 16
	.cfi_offset 6, -16
	movq	%rsp, %rbp
	.cfi_def_cfa_register 6
	subq	$32, %rsp
	movq	%rdi, -8(%rbp)
	movq	%rsi, -16(%rbp)
	movq	%rdx, -24(%rbp)
	cmpq	$0, -16(%rbp)
	je	.L545
	movq	-8(%rbp), %rax
	movq	-24(%rbp), %rdx
	movq	-16(%rbp), %rcx
	movq	%rcx, %rsi
	movq	%rax, %rdi
	call	_ZNSt16allocator_traitsISaI5TokenEE10deallocateERS1_PS0_m
.L545:
	nop
	leave
	.cfi_def_cfa 7, 8
	ret
	.cfi_endproc
.LFE5721:
	.size	_ZNSt12_Vector_baseI5TokenSaIS0_EE13_M_deallocateEPS0_m, .-_ZNSt12_Vector_baseI5TokenSaIS0_EE13_M_deallocateEPS0_m
	.section	.text._ZNSt12_Vector_baseI5TokenSaIS0_EE19_M_get_Tp_allocatorEv,"axG",@progbits,_ZNSt12_Vector_baseI5TokenSaIS0_EE19_M_get_Tp_allocatorEv,comdat
	.align 2
	.weak	_ZNSt12_Vector_baseI5TokenSaIS0_EE19_M_get_Tp_allocatorEv
	.type	_ZNSt12_Vector_baseI5TokenSaIS0_EE19_M_get_Tp_allocatorEv, @function
_ZNSt12_Vector_baseI5TokenSaIS0_EE19_M_get_Tp_allocatorEv:
.LFB5722:
	.cfi_startproc
	endbr64
	pushq	%rbp
	.cfi_def_cfa_offset 16
	.cfi_offset 6, -16
	movq	%rsp, %rbp
	.cfi_def_cfa_register 6
	movq	%rdi, -8(%rbp)
	movq	-8(%rbp), %rax
	popq	%rbp
	.cfi_def_cfa 7, 8
	ret
	.cfi_endproc
.LFE5722:
	.size	_ZNSt12_Vector_baseI5TokenSaIS0_EE19_M_get_Tp_allocatorEv, .-_ZNSt12_Vector_baseI5TokenSaIS0_EE19_M_get_Tp_allocatorEv
	.section	.text._ZSt8_DestroyIP5TokenS0_EvT_S2_RSaIT0_E,"axG",@progbits,_ZSt8_DestroyIP5TokenS0_EvT_S2_RSaIT0_E,comdat
	.weak	_ZSt8_DestroyIP5TokenS0_EvT_S2_RSaIT0_E
	.type	_ZSt8_DestroyIP5TokenS0_EvT_S2_RSaIT0_E, @function
_ZSt8_DestroyIP5TokenS0_EvT_S2_RSaIT0_E:
.LFB5723:
	.cfi_startproc
	endbr64
	pushq	%rbp
	.cfi_def_cfa_offset 16
	.cfi_offset 6, -16
	movq	%rsp, %rbp
	.cfi_def_cfa_register 6
	subq	$32, %rsp
	movq	%rdi, -8(%rbp)
	movq	%rsi, -16(%rbp)
	movq	%rdx, -24(%rbp)
	movq	-16(%rbp), %rdx
	movq	-8(%rbp), %rax
	movq	%rdx, %rsi
	movq	%rax, %rdi
	call	_ZSt8_DestroyIP5TokenEvT_S2_
	nop
	leave
	.cfi_def_cfa 7, 8
	ret
	.cfi_endproc
.LFE5723:
	.size	_ZSt8_DestroyIP5TokenS0_EvT_S2_RSaIT0_E, .-_ZSt8_DestroyIP5TokenS0_EvT_S2_RSaIT0_E
	.section	.text._ZSt4moveIRSt6vectorI5TokenSaIS1_EEEONSt16remove_referenceIT_E4typeEOS6_,"axG",@progbits,_ZSt4moveIRSt6vectorI5TokenSaIS1_EEEONSt16remove_referenceIT_E4typeEOS6_,comdat
	.weak	_ZSt4moveIRSt6vectorI5TokenSaIS1_EEEONSt16remove_referenceIT_E4typeEOS6_
	.type	_ZSt4moveIRSt6vectorI5TokenSaIS1_EEEONSt16remove_referenceIT_E4typeEOS6_, @function
_ZSt4moveIRSt6vectorI5TokenSaIS1_EEEONSt16remove_referenceIT_E4typeEOS6_:
.LFB5725:
	.cfi_startproc
	endbr64
	pushq	%rbp
	.cfi_def_cfa_offset 16
	.cfi_offset 6, -16
	movq	%rsp, %rbp
	.cfi_def_cfa_register 6
	movq	%rdi, -8(%rbp)
	movq	-8(%rbp), %rax
	popq	%rbp
	.cfi_def_cfa 7, 8
	ret
	.cfi_endproc
.LFE5725:
	.size	_ZSt4moveIRSt6vectorI5TokenSaIS1_EEEONSt16remove_referenceIT_E4typeEOS6_, .-_ZSt4moveIRSt6vectorI5TokenSaIS1_EEEONSt16remove_referenceIT_E4typeEOS6_
	.section	.text._ZNSt6vectorI5TokenSaIS0_EE14_M_move_assignEOS2_St17integral_constantIbLb1EE,"axG",@progbits,_ZNSt6vectorI5TokenSaIS0_EE14_M_move_assignEOS2_St17integral_constantIbLb1EE,comdat
	.align 2
	.weak	_ZNSt6vectorI5TokenSaIS0_EE14_M_move_assignEOS2_St17integral_constantIbLb1EE
	.type	_ZNSt6vectorI5TokenSaIS0_EE14_M_move_assignEOS2_St17integral_constantIbLb1EE, @function
_ZNSt6vectorI5TokenSaIS0_EE14_M_move_assignEOS2_St17integral_constantIbLb1EE:
.LFB5726:
	.cfi_startproc
	endbr64
	pushq	%rbp
	.cfi_def_cfa_offset 16
	.cfi_offset 6, -16
	movq	%rsp, %rbp
	.cfi_def_cfa_register 6
	pushq	%rbx
	subq	$72, %rsp
	.cfi_offset 3, -24
	movq	%rdi, -72(%rbp)
	movq	%rsi, -80(%rbp)
	movq	%fs:40, %rax
	movq	%rax, -24(%rbp)
	xorl	%eax, %eax
	movq	-72(%rbp), %rdx
	leaq	-49(%rbp), %rax
	movq	%rdx, %rsi
	movq	%rax, %rdi
	call	_ZNKSt12_Vector_baseI5TokenSaIS0_EE13get_allocatorEv
	leaq	-49(%rbp), %rdx
	leaq	-48(%rbp), %rax
	movq	%rdx, %rsi
	movq	%rax, %rdi
	call	_ZNSt6vectorI5TokenSaIS0_EEC1ERKS1_
	leaq	-49(%rbp), %rax
	movq	%rax, %rdi
	call	_ZNSaI5TokenED1Ev
	movq	-72(%rbp), %rax
	movq	-80(%rbp), %rdx
	movq	%rdx, %rsi
	movq	%rax, %rdi
	call	_ZNSt12_Vector_baseI5TokenSaIS0_EE17_Vector_impl_data12_M_swap_dataERS3_
	movq	-80(%rbp), %rdx
	leaq	-48(%rbp), %rax
	movq	%rdx, %rsi
	movq	%rax, %rdi
	call	_ZNSt12_Vector_baseI5TokenSaIS0_EE17_Vector_impl_data12_M_swap_dataERS3_
	movq	-80(%rbp), %rax
	movq	%rax, %rdi
	call	_ZNSt12_Vector_baseI5TokenSaIS0_EE19_M_get_Tp_allocatorEv
	movq	%rax, %rbx
	movq	-72(%rbp), %rax
	movq	%rax, %rdi
	call	_ZNSt12_Vector_baseI5TokenSaIS0_EE19_M_get_Tp_allocatorEv
	movq	%rbx, %rsi
	movq	%rax, %rdi
	call	_ZSt15__alloc_on_moveISaI5TokenEEvRT_S3_
	leaq	-48(%rbp), %rax
	movq	%rax, %rdi
	call	_ZNSt6vectorI5TokenSaIS0_EED1Ev
	movq	-24(%rbp), %rax
	subq	%fs:40, %rax
	je	.L552
	call	__stack_chk_fail@PLT
.L552:
	movq	-8(%rbp), %rbx
	leave
	.cfi_def_cfa 7, 8
	ret
	.cfi_endproc
.LFE5726:
	.size	_ZNSt6vectorI5TokenSaIS0_EE14_M_move_assignEOS2_St17integral_constantIbLb1EE, .-_ZNSt6vectorI5TokenSaIS0_EE14_M_move_assignEOS2_St17integral_constantIbLb1EE
	.section	.text._ZNSt16allocator_traitsISaI5TokenEE9constructIS0_JRKS0_EEEvRS1_PT_DpOT0_,"axG",@progbits,_ZNSt16allocator_traitsISaI5TokenEE9constructIS0_JRKS0_EEEvRS1_PT_DpOT0_,comdat
	.weak	_ZNSt16allocator_traitsISaI5TokenEE9constructIS0_JRKS0_EEEvRS1_PT_DpOT0_
	.type	_ZNSt16allocator_traitsISaI5TokenEE9constructIS0_JRKS0_EEEvRS1_PT_DpOT0_, @function
_ZNSt16allocator_traitsISaI5TokenEE9constructIS0_JRKS0_EEEvRS1_PT_DpOT0_:
.LFB5727:
	.cfi_startproc
	endbr64
	pushq	%rbp
	.cfi_def_cfa_offset 16
	.cfi_offset 6, -16
	movq	%rsp, %rbp
	.cfi_def_cfa_register 6
	subq	$32, %rsp
	movq	%rdi, -8(%rbp)
	movq	%rsi, -16(%rbp)
	movq	%rdx, -24(%rbp)
	movq	-24(%rbp), %rax
	movq	%rax, %rdi
	call	_ZSt7forwardIRK5TokenEOT_RNSt16remove_referenceIS3_E4typeE
	movq	%rax, %rdx
	movq	-16(%rbp), %rcx
	movq	-8(%rbp), %rax
	movq	%rcx, %rsi
	movq	%rax, %rdi
	call	_ZN9__gnu_cxx13new_allocatorI5TokenE9constructIS1_JRKS1_EEEvPT_DpOT0_
	nop
	leave
	.cfi_def_cfa 7, 8
	ret
	.cfi_endproc
.LFE5727:
	.size	_ZNSt16allocator_traitsISaI5TokenEE9constructIS0_JRKS0_EEEvRS1_PT_DpOT0_, .-_ZNSt16allocator_traitsISaI5TokenEE9constructIS0_JRKS0_EEEvRS1_PT_DpOT0_
	.section	.rodata
.LC25:
	.string	"vector::_M_realloc_insert"
	.section	.text._ZNSt6vectorI5TokenSaIS0_EE17_M_realloc_insertIJRKS0_EEEvN9__gnu_cxx17__normal_iteratorIPS0_S2_EEDpOT_,"axG",@progbits,_ZNSt6vectorI5TokenSaIS0_EE17_M_realloc_insertIJRKS0_EEEvN9__gnu_cxx17__normal_iteratorIPS0_S2_EEDpOT_,comdat
	.align 2
	.weak	_ZNSt6vectorI5TokenSaIS0_EE17_M_realloc_insertIJRKS0_EEEvN9__gnu_cxx17__normal_iteratorIPS0_S2_EEDpOT_
	.type	_ZNSt6vectorI5TokenSaIS0_EE17_M_realloc_insertIJRKS0_EEEvN9__gnu_cxx17__normal_iteratorIPS0_S2_EEDpOT_, @function
_ZNSt6vectorI5TokenSaIS0_EE17_M_realloc_insertIJRKS0_EEEvN9__gnu_cxx17__normal_iteratorIPS0_S2_EEDpOT_:
.LFB5728:
	.cfi_startproc
	.cfi_personality 0x9b,DW.ref.__gxx_personality_v0
	.cfi_lsda 0x1b,.LLSDA5728
	endbr64
	pushq	%rbp
	.cfi_def_cfa_offset 16
	.cfi_offset 6, -16
	movq	%rsp, %rbp
	.cfi_def_cfa_register 6
	pushq	%rbx
	subq	$104, %rsp
	.cfi_offset 3, -24
	movq	%rdi, -88(%rbp)
	movq	%rsi, -96(%rbp)
	movq	%rdx, -104(%rbp)
	movq	%fs:40, %rax
	movq	%rax, -24(%rbp)
	xorl	%eax, %eax
	movq	-88(%rbp), %rax
	leaq	.LC25(%rip), %rdx
	movl	$1, %esi
	movq	%rax, %rdi
.LEHB75:
	call	_ZNKSt6vectorI5TokenSaIS0_EE12_M_check_lenEmPKc
	movq	%rax, -72(%rbp)
	movq	-88(%rbp), %rax
	movq	(%rax), %rax
	movq	%rax, -64(%rbp)
	movq	-88(%rbp), %rax
	movq	8(%rax), %rax
	movq	%rax, -56(%rbp)
	movq	-88(%rbp), %rax
	movq	%rax, %rdi
	call	_ZNSt6vectorI5TokenSaIS0_EE5beginEv
	movq	%rax, -80(%rbp)
	leaq	-80(%rbp), %rdx
	leaq	-96(%rbp), %rax
	movq	%rdx, %rsi
	movq	%rax, %rdi
	call	_ZN9__gnu_cxxmiIP5TokenSt6vectorIS1_SaIS1_EEEENS_17__normal_iteratorIT_T0_E15difference_typeERKS9_SC_
	movq	%rax, -48(%rbp)
	movq	-88(%rbp), %rax
	movq	-72(%rbp), %rdx
	movq	%rdx, %rsi
	movq	%rax, %rdi
	call	_ZNSt12_Vector_baseI5TokenSaIS0_EE11_M_allocateEm
.LEHE75:
	movq	%rax, -40(%rbp)
	movq	-40(%rbp), %rax
	movq	%rax, -32(%rbp)
	movq	-104(%rbp), %rax
	movq	%rax, %rdi
	call	_ZSt7forwardIRK5TokenEOT_RNSt16remove_referenceIS3_E4typeE
	movq	%rax, %rsi
	movq	-48(%rbp), %rdx
	movq	%rdx, %rax
	addq	%rax, %rax
	addq	%rdx, %rax
	salq	$5, %rax
	movq	%rax, %rdx
	movq	-40(%rbp), %rax
	leaq	(%rdx,%rax), %rcx
	movq	-88(%rbp), %rax
	movq	%rsi, %rdx
	movq	%rcx, %rsi
	movq	%rax, %rdi
.LEHB76:
	call	_ZNSt16allocator_traitsISaI5TokenEE9constructIS0_JRKS0_EEEvRS1_PT_DpOT0_
.LEHE76:
	movq	$0, -32(%rbp)
	movq	-88(%rbp), %rax
	movq	%rax, %rdi
	call	_ZNSt12_Vector_baseI5TokenSaIS0_EE19_M_get_Tp_allocatorEv
	movq	%rax, %rbx
	leaq	-96(%rbp), %rax
	movq	%rax, %rdi
	call	_ZNK9__gnu_cxx17__normal_iteratorIP5TokenSt6vectorIS1_SaIS1_EEE4baseEv
	movq	(%rax), %rsi
	movq	-40(%rbp), %rdx
	movq	-64(%rbp), %rax
	movq	%rbx, %rcx
	movq	%rax, %rdi
	call	_ZNSt6vectorI5TokenSaIS0_EE11_S_relocateEPS0_S3_S3_RS1_
	movq	%rax, -32(%rbp)
	addq	$96, -32(%rbp)
	movq	-88(%rbp), %rax
	movq	%rax, %rdi
	call	_ZNSt12_Vector_baseI5TokenSaIS0_EE19_M_get_Tp_allocatorEv
	movq	%rax, %rbx
	leaq	-96(%rbp), %rax
	movq	%rax, %rdi
	call	_ZNK9__gnu_cxx17__normal_iteratorIP5TokenSt6vectorIS1_SaIS1_EEE4baseEv
	movq	(%rax), %rax
	movq	-32(%rbp), %rdx
	movq	-56(%rbp), %rsi
	movq	%rbx, %rcx
	movq	%rax, %rdi
	call	_ZNSt6vectorI5TokenSaIS0_EE11_S_relocateEPS0_S3_S3_RS1_
	movq	%rax, -32(%rbp)
	movq	-88(%rbp), %rax
	movq	-88(%rbp), %rdx
	movq	16(%rdx), %rdx
	subq	-64(%rbp), %rdx
	movq	%rdx, %rcx
	sarq	$5, %rcx
	movabsq	$-6148914691236517205, %rdx
	imulq	%rcx, %rdx
	movq	-64(%rbp), %rcx
	movq	%rcx, %rsi
	movq	%rax, %rdi
.LEHB77:
	call	_ZNSt12_Vector_baseI5TokenSaIS0_EE13_M_deallocateEPS0_m
.LEHE77:
	movq	-88(%rbp), %rax
	movq	-40(%rbp), %rdx
	movq	%rdx, (%rax)
	movq	-88(%rbp), %rax
	movq	-32(%rbp), %rdx
	movq	%rdx, 8(%rax)
	movq	-72(%rbp), %rdx
	movq	%rdx, %rax
	addq	%rax, %rax
	addq	%rdx, %rax
	salq	$5, %rax
	movq	%rax, %rdx
	movq	-40(%rbp), %rax
	addq	%rax, %rdx
	movq	-88(%rbp), %rax
	movq	%rdx, 16(%rax)
	nop
	movq	-24(%rbp), %rax
	subq	%fs:40, %rax
	je	.L559
	jmp	.L562
.L560:
	endbr64
	movq	%rax, %rdi
	call	__cxa_begin_catch@PLT
	cmpq	$0, -32(%rbp)
	jne	.L556
	movq	-48(%rbp), %rdx
	movq	%rdx, %rax
	addq	%rax, %rax
	addq	%rdx, %rax
